CCS PCH C Compiler, Version 4.140, 44354               09-abr-16 08:59

               Filename:   C:\Users\Jonathan\Dropbox\Kicad\KICAD_new\deshielador_18F2550\codigo\Deshielador_digital_2\deshiela.lst

               ROM used:   5848 bytes (18%)
                           Largest free fragment is 26916
               RAM used:   89 (4%) at main() level
                           166 (8%) worst case
               Stack:     5 worst case (4 in main + 1 for interrupts)

*
0000:  GOTO   15C2
*
0008:  MOVWF  04
000A:  MOVFF  FD8,05
000E:  MOVFF  FE0,06
0012:  MOVLB  0
0014:  MOVFF  FE9,0C
0018:  MOVFF  FEA,07
001C:  MOVFF  FE1,08
0020:  MOVFF  FE2,09
0024:  MOVFF  FD9,0A
0028:  MOVFF  FDA,0B
002C:  MOVFF  FF3,12
0030:  MOVFF  FF4,13
0034:  MOVFF  FFA,14
0038:  MOVFF  FF5,15
003C:  MOVFF  FF6,16
0040:  MOVFF  FF7,17
0044:  MOVFF  00,0E
0048:  MOVFF  01,0F
004C:  MOVFF  02,10
0050:  MOVFF  03,11
0054:  BTFSS  F9D.0
0056:  GOTO   0060
005A:  BTFSC  F9E.0
005C:  GOTO   00AE
0060:  MOVFF  0E,00
0064:  MOVFF  0F,01
0068:  MOVFF  10,02
006C:  MOVFF  11,03
0070:  MOVFF  0C,FE9
0074:  MOVFF  07,FEA
0078:  BSF    07.7
007A:  MOVFF  08,FE1
007E:  MOVFF  09,FE2
0082:  MOVFF  0A,FD9
0086:  MOVFF  0B,FDA
008A:  MOVFF  12,FF3
008E:  MOVFF  13,FF4
0092:  MOVFF  14,FFA
0096:  MOVFF  15,FF5
009A:  MOVFF  16,FF6
009E:  MOVFF  17,FF7
00A2:  MOVF   04,W
00A4:  MOVFF  06,FE0
00A8:  MOVFF  05,FD8
00AC:  RETFIE 0
.................... #include <deshiela.h> 
.................... #include <18F2550.h> 
.................... //////// Standard Header file for the PIC18F2550 device //////////////// 
.................... #device PIC18F2550 
.................... #list 
....................  
.................... #device adc=10 
....................  
.................... #FUSES NOWDT                    //No Watch Dog Timer 
.................... #FUSES WDT128                   //Watch Dog Timer uses 1:128 Postscale 
.................... #FUSES PLL1                     //No PLL PreScaler 
.................... #FUSES CPUDIV1                  //No System Clock Postscaler 
.................... #FUSES NOUSBDIV                 //USB clock source comes from primary oscillator 
.................... #FUSES XT                       //Crystal osc <= 4mhz for PCM/PCH , 3mhz to 10 mhz for PCD 
.................... #FUSES NOFCMEN                  //Fail-safe clock monitor disabled 
.................... #FUSES NOBROWNOUT               //No brownout reset 
.................... #FUSES NOLVP                    //No low voltage prgming, B3(PIC16) or B5(PIC18) used for I/O 
.................... #FUSES NOXINST                  //Extended set extension and Indexed Addressing mode disabled (Legacy mode) 
....................  
....................  
....................  
....................  
.................... ///SALIDAS 
.................... #DEFINE COMPRESOR       PIN_C5 
.................... #DEFINE VENTILADOR      PIN_C6 
.................... #DEFINE RESISTENCIA     PIN_C7 
....................  
.................... ///USUARIO 
.................... #DEFINE BOTON_PROGRA    PIN_A2 
.................... #DEFINE BOTON_SELECT    PIN_A3 
.................... #DEFINE BOTON_MAS       PIN_A4 
.................... #DEFINE BOTON_MENOS     PIN_A5 
....................  
.................... #use delay(clock=4000000) 
*
01D6:  CLRF   FEA
01D8:  MOVLW  5F
01DA:  MOVWF  FE9
01DC:  MOVF   FEF,W
01DE:  BZ    01FC
01E0:  MOVLW  01
01E2:  MOVWF  01
01E4:  CLRF   00
01E6:  DECFSZ 00,F
01E8:  BRA    01E6
01EA:  DECFSZ 01,F
01EC:  BRA    01E4
01EE:  MOVLW  4A
01F0:  MOVWF  00
01F2:  DECFSZ 00,F
01F4:  BRA    01F2
01F6:  BRA    01F8
01F8:  DECFSZ FEF,F
01FA:  BRA    01E0
01FC:  RETURN 0
....................  
....................  
....................  
.................... #include <math.h> 
.................... //////////////////////////////////////////////////////////////////////////// 
.................... ////        (C) Copyright 1996,2011 Custom Computer Services            //// 
.................... //// This source code may only be used by licensed users of the CCS C   //// 
.................... //// compiler.  This source code may only be distributed to other       //// 
.................... //// licensed users of the CCS C compiler.  No other use, reproduction  //// 
.................... //// or distribution is permitted without written permission.           //// 
.................... //// Derivative programs created using this software in object code     //// 
.................... //// form are not restricted in any way.                                //// 
.................... //////////////////////////////////////////////////////////////////////////// 
.................... ////                                                                    //// 
.................... //// History:                                                           //// 
.................... ////  * 9/20/2001 :  Improvments are made to sin/cos code.              //// 
.................... ////                 The code now is small, much faster,                //// 
.................... ////                 and more accurate.                                 //// 
.................... ////  * 2/21/2007 :  Compiler handles & operator differently and does   //// 
.................... ////                 not return generic (int8 *) so type cast is done   //// 
.................... ////  * 6/19/2010 :  Divisions by constants converted to multiplication //// 
.................... ////                 by its inverse to improve computation speed        //// 
.................... ////  * 1/21/2011 :  Constants used for double precision math updated   //// 
.................... ////                 Updated routines include 64 bit versions of cos,   //// 
.................... ////                 asin,atan,exp,log and dependant functions          //// 
.................... ////  * 1/31/2011 :  Optimized current 32-bit float routines for cos    //// 
.................... ////                 and log function                                   //// 
.................... ////  * 6/13/2011 :  Fixed PCD overload CEIL_FLOOR functions for values //// 
.................... ////                 greater then 10000000 and less then -10000000      //// 
.................... ////                                                                    //// 
.................... //////////////////////////////////////////////////////////////////////////// 
....................  
.................... #ifndef MATH_H 
.................... #define MATH_H 
....................  
.................... #ifdef PI 
.................... #undef  PI 
.................... #endif 
.................... #define PI     3.1415926535897932 
....................  
....................  
.................... #define SQRT2  1.4142135623730950 
....................  
.................... //float const ps[4] = {5.9304945, 21.125224, 8.9403076, 0.29730279}; 
.................... //float const qs[4] = {1.0000000, 15.035723, 17.764134, 2.4934718}; 
....................  
.................... ///////////////////////////// Round Functions ////////////////////////////// 
....................  
.................... float32 CEIL_FLOOR(float32 x, unsigned int8 n) 
.................... { 
....................    float32 y, res; 
....................    unsigned int16 l; 
....................    int1 s; 
....................  
....................    s = 0; 
....................    y = x; 
....................  
....................    if (x < 0) 
....................    { 
....................       s = 1; 
....................       y = -y; 
....................    } 
....................  
....................    if (y <= 32768.0) 
....................       res = (float32)(unsigned int16)y; 
....................  
....................  else if (y < 10000000.0) 
....................    {  
....................       l = (unsigned int16)(y*0.000030517578125); 
....................       y = 32768.0*(y*0.000030517578125 - (float32)l); 
....................       res = 32768.0*(float32)l; 
....................       res += (float32)(unsigned int16)y; 
....................    } 
....................  
....................  else 
....................   res = y; 
....................  
....................  y = y - (float32)(unsigned int16)y; 
....................  
....................  if (s) 
....................   res = -res; 
....................  
....................  if (y != 0) 
....................  { 
....................   if (s == 1 && n == 0) 
....................    res -= 1.0; 
....................  
....................   if (s == 0 && n == 1) 
....................    res += 1.0; 
....................  } 
....................  if (x == 0) 
....................     res = 0; 
....................  
....................  return (res); 
.................... } 
....................  
.................... // Overloaded Functions to take care for new Data types in PCD 
.................... // Overloaded function CEIL_FLOOR() for data type - Float48 
.................... #if defined(__PCD__) 
.................... float48 CEIL_FLOOR(float48 x, unsigned int8 n) 
.................... { 
....................    float48 y, res; 
....................    unsigned int32 l; 
....................    int1 s; 
....................  
....................    s = 0; 
....................    y = x; 
....................  
....................    if (x < 0) 
....................    { 
....................       s = 1; 
....................       y = -y; 
....................    } 
....................  
....................    if (y <= 32768.0) 
....................       res = (float48)(unsigned int16)y; 
....................  
....................    else if (y < 549755813888.0) 
....................    { 
....................       l = (unsigned int32)(y*0.000030517578125); 
....................       y = 32768.0*(y*0.000030517578125 - (float48)l); 
....................       res = 32768.0*(float48)l; 
....................       res += (float48)(unsigned int16)y; 
....................    } 
....................    else 
....................    {   
....................       res = y; 
....................       y = 0.0; 
....................    } 
....................     
....................    if(y != 0) 
....................       y = y - (float48)(unsigned int16)y; 
....................  
....................    if (s) 
....................       res = -res; 
....................  
....................    if (y != 0) 
....................    { 
....................       if (s == 1 && n == 0) 
....................          res -= 1.0; 
....................  
....................       if (s == 0 && n == 1) 
....................          res += 1.0; 
....................    } 
....................    if (x == 0) 
....................       res = 0; 
....................  
....................    return (res); 
.................... } 
....................  
....................  
.................... // Overloaded function CEIL_FLOOR() for data type - Float64 
.................... float64 CEIL_FLOOR(float64 x, unsigned int8 n) 
.................... { 
....................    float64 y, res; 
....................    int64 l; 
....................    int1 s; 
....................  
....................    s = 0; 
....................    y = x; 
....................  
....................    if (x < 0) 
....................    { 
....................       s = 1; 
....................       y = -y; 
....................    } 
....................  
....................    if (y <= 32768.0) 
....................       res = (float64)(unsigned int16)y; 
....................    else if (y < 4503599627370496.0) 
....................    { 
....................       l = (int64)(y*0.000030517578125); 
....................       y = 32768.0*(y*0.000030517578125 - (float64)l); 
....................       res = 32768.0*(float64)l; 
....................       res += (float64)(unsigned int16)y; 
....................    } 
....................    else 
....................    { 
....................       res = y; 
....................       y = 0.0; 
....................    } 
....................     
....................    if(y != 0) 
....................       y = y - (float64)(unsigned int16)y; 
....................  
....................    if (s) 
....................       res = -res; 
....................  
....................    if (y != 0) 
....................    { 
....................       if (s == 1 && n == 0) 
....................          res -= 1.0; 
....................  
....................       if (s == 0 && n == 1) 
....................          res += 1.0; 
....................    } 
....................     
....................    if (x == 0) 
....................       res = 0; 
....................  
....................    return (res); 
.................... } 
.................... #endif 
....................  
.................... //////////////////////////////////////////////////////////////////////////// 
.................... //   float floor(float x) 
.................... //////////////////////////////////////////////////////////////////////////// 
.................... // Description : rounds down the number x. 
.................... // Date : N/A 
.................... // 
.................... float32 floor(float32 x) 
.................... { 
....................    return CEIL_FLOOR(x,0); 
.................... } 
.................... // Following 2 functions are overloaded functions of floor() for PCD 
.................... // Overloaded function floor() for data type - Float48 
.................... #if defined(__PCD__) 
.................... float48 floor(float48 x) 
.................... { 
....................    return CEIL_FLOOR(x, 0); 
.................... } 
....................  
.................... // Overloaded function floor() for data type - Float64 
.................... float64 floor(float64 x) 
.................... { 
....................    return CEIL_FLOOR(x, 0); 
.................... } 
.................... #endif 
....................  
....................  
.................... //////////////////////////////////////////////////////////////////////////// 
.................... //   float ceil(float x) 
.................... //////////////////////////////////////////////////////////////////////////// 
.................... // Description : rounds up the number x. 
.................... // Date : N/A 
.................... // 
.................... float32 ceil(float32 x) 
.................... { 
....................    return CEIL_FLOOR(x, 1); 
.................... } 
.................... // Following 2 functions are overloaded functions of ceil() for PCD 
.................... // Overloaded function ceil() for data type - Float48 
.................... #if defined(__PCD__) 
.................... float48 ceil(float48 x) 
.................... { 
....................    return CEIL_FLOOR(x, 1); 
.................... } 
....................  
.................... // Overloaded function ceil() for data type - Float64 
.................... float64 ceil(float64 x) 
.................... { 
....................    return CEIL_FLOOR(x, 1); 
.................... } 
.................... #endif 
....................  
....................  //////////////////////////////////////////////////////////////////////////// 
.................... //   float fabs(float x) 
.................... //////////////////////////////////////////////////////////////////////////// 
.................... // Description : Computes the absolute value of floating point number x 
.................... // Returns : returns the absolute value of x 
.................... // Date : N/A 
.................... // 
.................... #define fabs abs 
....................  
.................... //////////////////////////////////////////////////////////////////////////// 
.................... //   float fmod(float x) 
.................... //////////////////////////////////////////////////////////////////////////// 
.................... // Description : Computes the floating point remainder of x/y 
.................... // Returns : returns the value of x= i*y, for some integer i such that, if y 
.................... // is non zero, the result has the same isgn of x na dmagnitude less than the 
.................... // magnitude of y. If y is zero then a domain error occurs. 
.................... // Date : N/A 
.................... // 
....................  
.................... float fmod(float32 x,float32 y) 
.................... { 
....................    float32 i; 
....................    if (y!=0.0) 
....................    { 
....................       i=(x/y < 0.0)? ceil(x/y): floor(x/y); 
....................       return(x-(i*y)); 
....................    } 
....................    else 
....................    { 
....................    #ifdef _ERRNO 
....................    { 
....................       errno=EDOM; 
....................    } 
....................    #endif 
....................    } 
.................... } 
.................... //Overloaded function for fmod() for PCD 
.................... // Overloaded function fmod() for data type - Float48 
.................... #if defined(__PCD__) 
.................... float48 fmod(float48 x,float48 y) 
.................... { 
....................    float48 i; 
....................    if (y!=0.0) 
....................    { 
....................       i=(x/y < 0.0)? ceil(x/y): floor(x/y); 
....................       return(x-(i*y)); 
....................    } 
....................    else 
....................    { 
....................    #ifdef _ERRNO 
....................    { 
....................       errno=EDOM; 
....................    } 
....................    #endif 
....................    } 
.................... } 
.................... // Overloaded function fmod() for data type - Float64 
.................... float64 fmod(float64 x,float64 y) 
.................... { 
....................    float64 i; 
....................    if (y!=0.0) 
....................    { 
....................       i=(x/y < 0.0)? ceil(x/y): floor(x/y); 
....................       return(x-(i*y)); 
....................    } 
....................    else 
....................    { 
....................    #ifdef _ERRNO 
....................    { 
....................       errno=EDOM; 
....................    } 
....................    #endif 
....................    } 
.................... } 
.................... #endif 
.................... //////////////////// Exponential and logarithmic functions //////////////////// 
.................... //////////////////////////////////////////////////////////////////////////// 
.................... //   float exp(float x) 
.................... //////////////////////////////////////////////////////////////////////////// 
.................... // Description : returns the value (e^x) 
.................... // Date : N/A 
.................... // 
.................... #define LN2 0.6931471805599453 
.................... #define LN2_INV 1.4426950408889634073 
....................  
.................... float const pe[6] = {0.000207455774, 0.00127100575, 0.00965065093, 
....................                      0.0554965651,  0.240227138,  0.693147172}; 
....................  
....................  
.................... float32 exp(float32 x) 
.................... { 
....................    float32 y, res, r; 
....................    #if defined(__PCD__) 
....................    int8 data1; 
....................    #endif 
....................    signed int8 n; 
....................    int1 s; 
....................    #ifdef _ERRNO 
....................    if(x > 88.722838) 
....................    { 
....................       errno=ERANGE; 
....................       return(0); 
....................    } 
....................    #endif 
....................    n = (signed int16)(x*LN2_INV); 
....................    s = 0; 
....................    y = x; 
....................  
....................    if (x < 0) 
....................    { 
....................       s = 1; 
....................       n = -n; 
....................       y = -y; 
....................    } 
....................  
....................    res = 0.0; 
.................... #if !defined(__PCD__) 
....................    *((unsigned int8 *)(&res)) = n + 0x7F; 
.................... #endif 
....................  
.................... #if defined(__PCD__)  // Takes care of IEEE format for PCD 
....................    data1 = n+0x7F; 
....................    if(bit_test(data1,0)) 
....................    bit_set(*(((unsigned int8 *)(&res)+2)),7); 
....................    rotate_right(&data1,1); 
....................    bit_clear(data1,7); 
....................    *(((unsigned int8 *)(&res)+3)) = data1; 
.................... #endif 
....................  
....................    y = y*LN2_INV - (float32)n; 
....................  
....................    r = pe[0]*y + pe[1]; 
....................    r = r*y + pe[2]; 
....................    r = r*y + pe[3]; 
....................    r = r*y + pe[4]; 
....................    r = r*y + pe[5]; 
....................  
....................    res = res*(1.0 + y*r); 
....................  
....................    if (s) 
....................       res = 1.0/res; 
....................    return(res); 
.................... } 
....................  
....................  
.................... //Overloaded function for exp() for PCD 
.................... // Overloaded function exp() for data type - Float48 
.................... #if defined(__PCD__) 
.................... float48 exp(float48 x) 
.................... { 
....................    float48 y, res, r; 
....................    int8 data1; 
....................    signed int8 n; 
....................    int1 s; 
....................    #ifdef _ERRNO 
....................    if(x > 88.722838) 
....................    { 
....................       errno=ERANGE; 
....................       return(0); 
....................    } 
....................    #endif 
....................    n = (signed int16)(x*LN2_INV); 
....................    s = 0; 
....................    y = x; 
....................  
....................    if (x < 0) 
....................    { 
....................       s = 1; 
....................       n = -n; 
....................       y = -y; 
....................    } 
....................  
....................    res = 0.0; 
....................  
....................    data1 = n+0x7F; 
....................    if(bit_test(data1,0)) 
....................    bit_set(*(((unsigned int8 *)(&res)+4)),7); 
....................    rotate_right(&data1,1); 
....................    bit_clear(data1,7); 
....................    *(((unsigned int8 *)(&res)+5)) = data1; 
....................  
....................    y = y*LN2_INV - (float48)n; 
....................  
....................    r = pe[0]*y + pe[1]; 
....................    r = r*y + pe[2]; 
....................    r = r*y + pe[3]; 
....................    r = r*y + pe[4]; 
....................    r = r*y + pe[5]; 
....................  
....................    res = res*(1.0 + y*r); 
....................  
....................    if (s) 
....................       res = 1.0/res; 
....................    return(res); 
.................... } 
....................  
.................... // Overloaded function exp() for data type - Float64 
.................... float64 const pe_64[12] ={9.30741400474913e-011,-4.28655416283316e-011, 
....................                           8.71486547014137e-009,9.84458531538385e-008, 
....................                           1.32588296983536e-006,1.52489283823016e-005, 
....................                           0.000154037598423921,0.00133335487036216, 
....................                           0.00961812936407326,0.0555041086222122, 
....................                           0.240226506962827,0.693147180559823}; 
....................  
.................... float64 exp(float64 x) 
.................... { 
....................    float64 y, res, r; 
....................    unsigned int16 data1, data2; 
....................    unsigned int16 *p; 
....................    signed int16 n; 
....................    int1 s; 
....................    #ifdef _ERRNO 
....................    if(x > 709.7827128) 
....................    { 
....................       errno=ERANGE; 
....................       return(0); 
....................    } 
....................    #endif 
....................    y = x*LN2_INV; 
....................    n = (signed int16)y; 
....................    s = 0; 
....................    y = x; 
....................  
....................    if (x < 0) 
....................    { 
....................       s = 1; 
....................       n = -n; 
....................       y = -y; 
....................    } 
....................  
....................    res = 0.0; 
....................  
.................... #if !defined(__PCD__) 
....................    *((unsigned int16 *)(&res)) = n + 0x7F; 
.................... #endif 
....................    p= (((unsigned int16 *)(&res))+3); 
....................    data1 = *p; 
....................    data2 = *p;    
....................    data1 = n + 0x3FF; 
....................    data1 = data1 <<4; 
....................    if(bit_test(data2,15)) 
....................    bit_set(data1,15); 
....................    data2 = data2 & 0x000F; 
....................    data1 ^= data2; 
....................  
....................    *(((unsigned int16 *)(&res)+3)) = data1; 
....................  
....................  
....................    y = y*LN2_INV - (float64)n; 
....................  
....................    r = pe_64[0]*y + pe_64[1]; 
....................    r = r*y + pe_64[2]; 
....................    r = r*y + pe_64[3]; 
....................    r = r*y + pe_64[4]; 
....................    r = r*y + pe_64[5]; 
....................    r = r*y + pe_64[6]; 
....................    r = r*y + pe_64[7]; 
....................    r = r*y + pe_64[8]; 
....................    r = r*y + pe_64[9]; 
....................    r = r*y + pe_64[10]; 
....................    r = r*y + pe_64[11]; 
....................     
....................    res = res*(1.0 + y*r); 
....................  
....................    if (s) 
....................       res = 1.0/res; 
....................    return(res); 
.................... } 
.................... #ENDIF 
....................  
....................  
.................... /************************************************************/ 
....................  
.................... float32 const pl[4] = {-1.080310025160955, 1.999999947089217}; 
.................... float32 const ql[4] = {0.091284365719509, -0.873491916557671}; 
....................  
.................... //////////////////////////////////////////////////////////////////////////// 
.................... //   float log(float x) 
.................... //////////////////////////////////////////////////////////////////////////// 
.................... // Description : returns the the natural log of x 
.................... // Date : N/A 
.................... // 
.................... float32 log(float32 x) 
.................... { 
....................    float32 y, res, r, y2; 
....................    #if defined(__PCD__) 
....................    unsigned int8  data1,data2; 
....................    #endif 
....................    signed int8 n; 
....................    #ifdef _ERRNO 
....................    if(x <0) 
....................    { 
....................       errno=EDOM; 
....................    } 
....................    if(x ==0) 
....................    { 
....................       errno=ERANGE; 
....................       return(0); 
....................    } 
....................    #endif 
....................    y = x; 
*
07AA:  MOVFF  80,84
07AE:  MOVFF  7F,83
07B2:  MOVFF  7E,82
07B6:  MOVFF  7D,81
....................  
....................    if (y != 1.0) 
07BA:  MOVFF  84,95
07BE:  MOVFF  83,94
07C2:  MOVFF  82,93
07C6:  MOVFF  81,92
07CA:  CLRF   x99
07CC:  CLRF   x98
07CE:  CLRF   x97
07D0:  MOVLW  7F
07D2:  MOVWF  x96
07D4:  BRA    06EA
07D6:  BTFSC  FD8.2
07D8:  BRA    0AD2
....................    { 
.................... #if !defined(__PCD__) 
....................     *((unsigned int8 *)(&y)) = 0x7E;  
07DA:  CLRF   x93
07DC:  MOVLW  81
07DE:  MOVWF  FE9
07E0:  MOVFF  93,FEA
07E4:  MOVLW  7E
07E6:  MOVWF  FEF
.................... #endif 
....................  
.................... #if defined(__PCD__) // Takes care of IEEE format 
....................    data2 = *(((unsigned int8 *)(&y))+3); 
....................    *(((unsigned int8 *)(&y))+3) = 0x3F; 
....................    data1 = *(((unsigned int8 *)(&y))+2); 
....................    bit_clear(data1,7); 
....................    *(((unsigned int8 *)(&y))+2) = data1; 
....................    if(bit_test(data2,7)) 
....................      bit_set(*(((unsigned int8 *)(&y))+3),7); 
.................... #endif 
....................  
....................       y = (y - 1.0)/(y + 1.0); 
07E8:  BSF    FD8.1
07EA:  MOVFF  84,99
07EE:  MOVFF  83,98
07F2:  MOVFF  82,97
07F6:  MOVFF  81,96
07FA:  CLRF   x9D
07FC:  CLRF   x9C
07FE:  CLRF   x9B
0800:  MOVLW  7F
0802:  MOVWF  x9A
0804:  RCALL  0480
0806:  MOVFF  00,92
080A:  MOVFF  01,93
080E:  MOVFF  02,94
0812:  MOVFF  03,95
0816:  BCF    FD8.1
0818:  MOVFF  84,99
081C:  MOVFF  83,98
0820:  MOVFF  82,97
0824:  MOVFF  81,96
0828:  CLRF   x9D
082A:  CLRF   x9C
082C:  CLRF   x9B
082E:  MOVLW  7F
0830:  MOVWF  x9A
0832:  RCALL  0480
0834:  MOVFF  95,99
0838:  MOVFF  94,98
083C:  MOVFF  93,97
0840:  MOVFF  92,96
0844:  MOVFF  03,9D
0848:  MOVFF  02,9C
084C:  MOVFF  01,9B
0850:  MOVFF  00,9A
0854:  RCALL  0326
0856:  MOVFF  03,84
085A:  MOVFF  02,83
085E:  MOVFF  01,82
0862:  MOVFF  00,81
....................  
....................       y2=y*y; 
0866:  MOVFF  84,95
086A:  MOVFF  83,94
086E:  MOVFF  82,93
0872:  MOVFF  81,92
0876:  MOVFF  84,99
087A:  MOVFF  83,98
087E:  MOVFF  82,97
0882:  MOVFF  81,96
0886:  RCALL  0234
0888:  MOVFF  03,90
088C:  MOVFF  02,8F
0890:  MOVFF  01,8E
0894:  MOVFF  00,8D
....................  
....................       res = pl[0]*y2 + pl[1]; 
0898:  MOVLW  99
089A:  MOVWF  x95
089C:  MOVLW  47
089E:  MOVWF  x94
08A0:  MOVLW  8A
08A2:  MOVWF  x93
08A4:  MOVLW  7F
08A6:  MOVWF  x92
08A8:  MOVFF  90,99
08AC:  MOVFF  8F,98
08B0:  MOVFF  8E,97
08B4:  MOVFF  8D,96
08B8:  RCALL  0234
08BA:  MOVFF  00,92
08BE:  MOVFF  01,93
08C2:  MOVFF  02,94
08C6:  MOVFF  03,95
08CA:  BCF    FD8.1
08CC:  MOVFF  03,99
08D0:  MOVFF  02,98
08D4:  MOVFF  01,97
08D8:  MOVFF  00,96
08DC:  CLRF   x9D
08DE:  CLRF   x9C
08E0:  CLRF   x9B
08E2:  MOVLW  80
08E4:  MOVWF  x9A
08E6:  RCALL  0480
08E8:  MOVFF  03,88
08EC:  MOVFF  02,87
08F0:  MOVFF  01,86
08F4:  MOVFF  00,85
....................  
....................       r = ql[0]*y2 + ql[1]; 
08F8:  MOVLW  4C
08FA:  MOVWF  x95
08FC:  MOVLW  F3
08FE:  MOVWF  x94
0900:  MOVLW  3A
0902:  MOVWF  x93
0904:  MOVLW  7B
0906:  MOVWF  x92
0908:  MOVFF  90,99
090C:  MOVFF  8F,98
0910:  MOVFF  8E,97
0914:  MOVFF  8D,96
0918:  RCALL  0234
091A:  MOVFF  00,92
091E:  MOVFF  01,93
0922:  MOVFF  02,94
0926:  MOVFF  03,95
092A:  BCF    FD8.1
092C:  MOVFF  03,99
0930:  MOVFF  02,98
0934:  MOVFF  01,97
0938:  MOVFF  00,96
093C:  MOVLW  2B
093E:  MOVWF  x9D
0940:  MOVLW  9D
0942:  MOVWF  x9C
0944:  MOVLW  DF
0946:  MOVWF  x9B
0948:  MOVLW  7E
094A:  MOVWF  x9A
094C:  RCALL  0480
094E:  MOVFF  03,8C
0952:  MOVFF  02,8B
0956:  MOVFF  01,8A
095A:  MOVFF  00,89
....................       r = r*y2 + 1.0; 
095E:  MOVFF  8C,95
0962:  MOVFF  8B,94
0966:  MOVFF  8A,93
096A:  MOVFF  89,92
096E:  MOVFF  90,99
0972:  MOVFF  8F,98
0976:  MOVFF  8E,97
097A:  MOVFF  8D,96
097E:  RCALL  0234
0980:  MOVFF  00,92
0984:  MOVFF  01,93
0988:  MOVFF  02,94
098C:  MOVFF  03,95
0990:  BCF    FD8.1
0992:  MOVFF  03,99
0996:  MOVFF  02,98
099A:  MOVFF  01,97
099E:  MOVFF  00,96
09A2:  CLRF   x9D
09A4:  CLRF   x9C
09A6:  CLRF   x9B
09A8:  MOVLW  7F
09AA:  MOVWF  x9A
09AC:  RCALL  0480
09AE:  MOVFF  03,8C
09B2:  MOVFF  02,8B
09B6:  MOVFF  01,8A
09BA:  MOVFF  00,89
....................  
....................       res = y*res/r; 
09BE:  MOVFF  84,95
09C2:  MOVFF  83,94
09C6:  MOVFF  82,93
09CA:  MOVFF  81,92
09CE:  MOVFF  88,99
09D2:  MOVFF  87,98
09D6:  MOVFF  86,97
09DA:  MOVFF  85,96
09DE:  RCALL  0234
09E0:  MOVFF  00,92
09E4:  MOVFF  01,93
09E8:  MOVFF  02,94
09EC:  MOVFF  03,95
09F0:  MOVFF  03,99
09F4:  MOVFF  02,98
09F8:  MOVFF  01,97
09FC:  MOVFF  00,96
0A00:  MOVFF  8C,9D
0A04:  MOVFF  8B,9C
0A08:  MOVFF  8A,9B
0A0C:  MOVFF  89,9A
0A10:  RCALL  0326
0A12:  MOVFF  03,88
0A16:  MOVFF  02,87
0A1A:  MOVFF  01,86
0A1E:  MOVFF  00,85
.................... #if !defined(__PCD__) 
....................       n = *((unsigned int8 *)(&x)) - 0x7E; 
0A22:  CLRF   x93
0A24:  MOVLW  7D
0A26:  MOVWF  FE9
0A28:  MOVFF  93,FEA
0A2C:  MOVLW  7E
0A2E:  SUBWF  FEF,W
0A30:  MOVWF  x91
.................... #endif 
.................... #if defined(__PCD__)  
....................     data1 = *(((unsigned int8 *)(&x)+3)); 
....................     rotate_left(&data1,1); 
....................     data2 = *(((unsigned int8 *)(&x)+2)); 
....................     if(bit_test (data2,7)) 
....................       bit_set(data1,0); 
....................     n = data1 - 0x7E; 
.................... #endif 
....................  
....................       if (n<0)  
0A32:  BTFSC  x91.7
0A34:  BRA    0A38
0A36:  BRA    0A5C
....................          r = -(float32)-n; 
0A38:  MOVLW  00
0A3A:  BSF    FD8.0
0A3C:  SUBFWB x91,W
0A3E:  CLRF   x93
0A40:  MOVWF  x92
0A42:  BTFSC  x92.7
0A44:  DECF   x93,F
0A46:  RCALL  0762
0A48:  MOVFF  00,89
0A4C:  MOVF   01,W
0A4E:  XORLW  80
0A50:  MOVWF  x8A
0A52:  MOVFF  02,8B
0A56:  MOVFF  03,8C
....................       else 
0A5A:  BRA    0A78
....................          r = (float32)n; 
0A5C:  CLRF   x93
0A5E:  MOVFF  91,92
0A62:  BTFSC  x92.7
0A64:  DECF   x93,F
0A66:  RCALL  0762
0A68:  MOVFF  03,8C
0A6C:  MOVFF  02,8B
0A70:  MOVFF  01,8A
0A74:  MOVFF  00,89
....................  
....................       res += r*LN2; 
0A78:  MOVFF  8C,95
0A7C:  MOVFF  8B,94
0A80:  MOVFF  8A,93
0A84:  MOVFF  89,92
0A88:  MOVLW  18
0A8A:  MOVWF  x99
0A8C:  MOVLW  72
0A8E:  MOVWF  x98
0A90:  MOVLW  31
0A92:  MOVWF  x97
0A94:  MOVLW  7E
0A96:  MOVWF  x96
0A98:  CALL   0234
0A9C:  BCF    FD8.1
0A9E:  MOVFF  88,99
0AA2:  MOVFF  87,98
0AA6:  MOVFF  86,97
0AAA:  MOVFF  85,96
0AAE:  MOVFF  03,9D
0AB2:  MOVFF  02,9C
0AB6:  MOVFF  01,9B
0ABA:  MOVFF  00,9A
0ABE:  RCALL  0480
0AC0:  MOVFF  03,88
0AC4:  MOVFF  02,87
0AC8:  MOVFF  01,86
0ACC:  MOVFF  00,85
....................    } 
....................  
....................    else 
0AD0:  BRA    0ADA
....................       res = 0.0; 
0AD2:  CLRF   x88
0AD4:  CLRF   x87
0AD6:  CLRF   x86
0AD8:  CLRF   x85
....................  
....................    return(res); 
0ADA:  MOVFF  85,00
0ADE:  MOVFF  86,01
0AE2:  MOVFF  87,02
0AE6:  MOVFF  88,03
.................... } 
0AEA:  GOTO   0C46 (RETURN)
....................  
.................... //Overloaded function for log() for PCD 
.................... // Overloaded function log() for data type - Float48 
.................... #if defined(__PCD__) 
.................... // Overloaded function log() for data type - float64 
.................... float64 const pl_64[4] = {-0.145694052150681, 1.365485300000370, 
....................                           -3.120535668274329, 2.000000000000000}; 
....................  
.................... float64 const ql_64[4] = {0.006047500465908, -0.208298281937234, 
....................                           1.113943039156721, -1.893601167470470}; 
....................  
.................... float48 log(float48 x) 
.................... { 
....................    float48 y, res, r, y2; 
....................    unsigned int8  data1,data2; 
....................    signed int8 n; 
.................... #ifdef _ERRNO 
....................    if(x <0) 
....................    { 
....................       errno=EDOM; 
....................    } 
....................    if(x ==0) 
....................    { 
....................       errno=ERANGE; 
....................       return(0); 
....................    } 
.................... #endif 
....................    y = x; 
....................  
....................    if (y != 1.0) 
....................    { 
....................  
.................... #if !defined(__PCD__) 
....................       *((unsigned int8 *)(&y)) = 0x7E;  
.................... #endif 
....................       data2 = *(((unsigned int8 *)(&y))+5); 
....................       *(((unsigned int8 *)(&y))+5) = 0x3F; 
....................       data1 = *(((unsigned int8 *)(&y))+4); 
....................       bit_clear(data1,7); 
....................       *(((unsigned int8 *)(&y))+4) = data1; 
....................  
....................       if(bit_test(data2,7)) 
....................       bit_set(*(((unsigned int8 *)(&y))+4),7); 
....................       y = (y - 1.0)/(y + 1.0); 
....................  
....................       y2=y*y; 
....................  
....................       res = pl_64[0]*y2 + pl_64[1]; 
....................       res = res*y2 + pl_64[2]; 
....................       res = res*y2 + pl_64[3]; 
....................  
....................       r = ql_64[0]*y2 + ql_64[1]; 
....................       r = r*y2 + ql_64[2]; 
....................       r = r*y2 + ql_64[3]; 
....................       r = r*y2 + 1.0;  
....................       res = y*res/r; 
....................  
....................       data1 = *(((unsigned int8 *)(&x)+5)); 
....................       rotate_left(&data1,1); 
....................       data2 = *(((unsigned int8 *)(&x)+4)); 
....................       if(bit_test (data2,7)) 
....................       bit_set(data1,0); 
....................        
....................       n = data1 - 0x7E; 
....................  
....................       if (n<0) 
....................       r = -(float48)-n; 
....................       else 
....................       r = (float48)n; 
....................  
....................       res += r*LN2; 
....................    } 
....................  
....................    else 
....................    res = 0.0; 
....................  
....................    return(res); 
.................... } 
....................  
.................... float64 log(float64 x) 
.................... { 
....................    float64 y, res, r, y2; 
....................    unsigned int16  data1,data2; 
....................    unsigned int16 *p; 
....................    signed int16 n; 
....................    #ifdef _ERRNO 
....................    if(x <0) 
....................    { 
....................       errno=EDOM; 
....................    } 
....................    if(x ==0) 
....................    { 
....................       errno=ERANGE; 
....................       return(0); 
....................    } 
....................    #endif 
....................    y = x; 
....................  
....................    if (y != 1.0) 
....................    { 
....................    #if !defined(__PCD__) 
....................        *((unsigned int8 *)(&y)) = 0x7E;  
....................    #endif 
....................       p= (((unsigned int16 *)(&y))+3); 
....................       data1 = *p; 
....................       data2 = *p; 
....................       data1 = 0x3FE; 
....................       data1 = data1 <<4; 
....................       if(bit_test (data2,15)) 
....................          bit_set(data1,15); 
....................       data2 = data2 & 0x000F; 
....................       data1 ^=data2; 
....................  
....................       *p = data1; 
....................  
....................       y = (y - 1.0)/(y + 1.0); 
....................  
....................       y2=y*y; 
....................  
....................       res = pl_64[0]*y2 + pl_64[1]; 
....................       res = res*y2 + pl_64[2]; 
....................       res = res*y2 + pl_64[3]; 
....................  
....................       r = ql_64[0]*y2 + ql_64[1]; 
....................       r = r*y2 + ql_64[2]; 
....................       r = r*y2 + ql_64[3]; 
....................       r = r*y2 + 1.0; 
....................  
....................       res = y*res/r; 
....................   
....................       p= (((unsigned int16 *)(&x))+3); 
....................       data1 = *p; 
....................       bit_clear(data1,15); 
....................       data1 = data1 >>4;     
....................       n = data1 - 0x3FE; 
....................  
....................  
....................       if (n<0) 
....................          r = -(float64)-n; 
....................       else 
....................          r = (float64)n; 
....................  
....................       res += r*LN2; 
....................    } 
....................  
....................    else 
....................       res = 0.0; 
....................  
....................    return(res); 
.................... } 
.................... #endif 
....................  
....................  
.................... #define LN10 2.3025850929940456 
.................... #define LN10_INV 0.4342944819032518276 
....................  
.................... //////////////////////////////////////////////////////////////////////////// 
.................... //   float log10(float x) 
.................... //////////////////////////////////////////////////////////////////////////// 
.................... // Description : returns the the log base 10 of x 
.................... // Date : N/A 
.................... // 
.................... float32 log10(float32 x) 
.................... { 
....................    float32 r; 
....................  
....................    r = log(x); 
....................    r = r*LN10_INV; 
....................    return(r); 
.................... } 
....................  
.................... //Overloaded functions for log10() for PCD 
.................... // Overloaded function log10() for data type - Float48 
.................... #if defined(__PCD__) 
.................... float48 log10(float48 x) 
.................... { 
....................    float48 r; 
....................  
....................    r = log(x); 
....................    r = r*LN10_INV; 
....................    return(r); 
.................... } 
....................  
.................... // Overloaded function log10() for data type - Float64 
.................... float64 log10(float64 x) 
.................... { 
....................    float64 r; 
....................  
....................    r = log(x); 
....................    r = r*LN10_INV; 
....................    return(r); 
.................... } 
.................... #endif 
.................... //////////////////////////////////////////////////////////////////////////// 
.................... //   float modf(float x) 
.................... //////////////////////////////////////////////////////////////////////////// 
.................... // Description :breaks the argument value int integral and fractional parts, 
.................... // ach of which have the same sign as the argument.  It stores the integral part 
.................... // as a float in the object pointed to by the iptr 
.................... // Returns : returns the signed fractional part of value. 
.................... // Date : N/A 
.................... // 
....................  
.................... float32 modf(float32 value,float32 *iptr) 
.................... { 
....................    *iptr=(value < 0.0)? ceil(value): floor(value); 
....................    return(value - *iptr); 
.................... } 
.................... //Overloaded functions for modf() for PCD 
.................... // Overloaded function modf() for data type - Float48 
.................... #if defined(__PCD__) 
.................... float48 modf(float48 value,float48 *iptr) 
.................... { 
....................    *iptr=(value < 0.0)? ceil(value): floor(value); 
....................    return(value - *iptr); 
.................... } 
.................... // Overloaded function modf() for data type - Float64 
.................... float64 modf(float64 value,float64 *iptr) 
.................... { 
....................    *iptr=(value < 0.0)? ceil(value): floor(value); 
....................    return(value - *iptr); 
.................... } 
.................... #endif 
....................  
.................... //////////////////////////////////////////////////////////////////////////// 
.................... //   float pwr(float x,float y) 
.................... //////////////////////////////////////////////////////////////////////////// 
.................... // Description : returns the value (x^y) 
.................... // Date : N/A 
.................... // Note : 0 is returned when the function will generate an imaginary number 
.................... // 
.................... float32 pwr(float32 x,float32 y) 
.................... { 
....................    if(0 > x && fmod(y, 1) == 0) { 
....................       if(fmod(y, 2) == 0) { 
....................          return (exp(log(-x) * y)); 
....................       } else { 
....................          return (-exp(log(-x) * y)); 
....................       } 
....................    } else if(0 > x && fmod(y, 1) != 0) { 
....................       return 0; 
....................    } else { 
....................       if(x != 0 || 0 >= y) { 
....................          return (exp(log(x) * y)); 
....................       } 
....................    } 
.................... } 
.................... //Overloaded functions for pwr() for PCD 
.................... // Overloaded function pwr() for data type - Float48 
.................... #if defined(__PCD__) 
.................... float48 pwr(float48 x,float48 y) 
.................... { 
....................    if(0 > x && fmod(y, 1) == 0) { 
....................       if(fmod(y, 2) == 0) { 
....................          return (exp(log(-x) * y)); 
....................       } else { 
....................          return (-exp(log(-x) * y)); 
....................       } 
....................    } else if(0 > x && fmod(y, 1) != 0) { 
....................       return 0; 
....................    } else { 
....................       if(x != 0 || 0 >= y) { 
....................          return (exp(log(x) * y)); 
....................       } 
....................    } 
.................... } 
.................... // Overloaded function pwr() for data type - Float64 
.................... float64 pwr(float64 x,float64 y) 
.................... { 
....................    if(0 > x && fmod(y, 1) == 0) { 
....................       if(fmod(y, 2) == 0) { 
....................          return (exp(log(-x) * y)); 
....................       } else { 
....................          return (-exp(log(-x) * y)); 
....................       } 
....................    } else if(0 > x && fmod(y, 1) != 0) { 
....................       return 0; 
....................    } else { 
....................       if(x != 0 || 0 >= y) { 
....................          return (exp(log(x) * y)); 
....................       } 
....................    } 
.................... } 
.................... #endif 
....................  
.................... //////////////////// Power functions //////////////////// 
....................  
.................... //////////////////////////////////////////////////////////////////////////// 
.................... //   float pow(float x,float y) 
.................... //////////////////////////////////////////////////////////////////////////// 
.................... // Description : returns the value (x^y) 
.................... // Date : N/A 
.................... // Note : 0 is returned when the function will generate an imaginary number 
.................... // 
.................... float32 pow(float32 x,float32 y) 
.................... { 
....................    if(0 > x && fmod(y, 1) == 0) { 
....................       if(fmod(y, 2) == 0) { 
....................          return (exp(log(-x) * y)); 
....................       } else { 
....................          return (-exp(log(-x) * y)); 
....................       } 
....................    } else if(0 > x && fmod(y, 1) != 0) { 
....................       return 0; 
....................    } else { 
....................       if(x != 0 || 0 >= y) { 
....................          return (exp(log(x) * y)); 
....................       } 
....................    } 
.................... } 
.................... //Overloaded functions for pow() for PCD 
.................... // Overloaded function for pow() data type - Float48 
.................... #if defined(__PCD__) 
.................... float48 pow(float48 x,float48 y) 
.................... { 
....................    if(0 > x && fmod(y, 1) == 0) { 
....................       if(fmod(y, 2) == 0) { 
....................          return (exp(log(-x) * y)); 
....................       } else { 
....................          return (-exp(log(-x) * y)); 
....................       } 
....................    } else if(0 > x && fmod(y, 1) != 0) { 
....................       return 0; 
....................    } else { 
....................       if(x != 0 || 0 >= y) { 
....................          return (exp(log(x) * y)); 
....................       } 
....................    } 
.................... } 
....................  
.................... // Overloaded function pow() for data type - Float64 
.................... float64 pow(float64 x,float64 y) 
.................... { 
....................    if(0 > x && fmod(y, 1) == 0) { 
....................       if(fmod(y, 2) == 0) { 
....................          return (exp(log(-x) * y)); 
....................       } else { 
....................          return (-exp(log(-x) * y)); 
....................       } 
....................    } else if(0 > x && fmod(y, 1) != 0) { 
....................       return 0; 
....................    } else { 
....................       if(x != 0 || 0 >= y) { 
....................          return (exp(log(x) * y)); 
....................       } 
....................    } 
.................... } 
.................... #endif 
....................  
.................... //////////////////////////////////////////////////////////////////////////// 
.................... //   float sqrt(float x) 
.................... //////////////////////////////////////////////////////////////////////////// 
.................... // Description : returns the square root of x 
.................... // Date : N/A 
.................... // 
.................... float32 sqrt(float32 x) 
.................... { 
....................    float32 y, res; 
....................    #if defined(__PCD__) 
....................    unsigned int16 data1,data2; 
....................    #endif 
....................    unsigned int8 *p; 
....................  
....................    #ifdef _ERRNO 
....................    if(x < 0) 
....................    { 
....................       errno=EDOM; 
....................    } 
....................    #endif 
....................  
....................    if( x<=0.0) 
....................       return(0.0); 
....................  
....................    y=x; 
....................     
....................    #if !defined(__PCD__) 
....................     p=&y; 
....................    (*p)=(unsigned int8)((((unsigned int16)(*p)) + 127) >> 1); 
....................    #endif 
....................     
....................    #if defined(__PCD__) 
....................     p = (((unsigned int8 *)(&y))+3); 
....................     data1 = *(((unsigned int8 *)(&y))+3); 
....................     data2 = *(((unsigned int8 *)(&y))+2); 
....................     rotate_left(&data1,1);     
....................     if(bit_test(data2,7))     
....................        bit_set(data1,0);     
....................     data1 = ((data1+127) >>1); 
....................     bit_clear(data2,7); 
....................     if(bit_test(data1,0)) 
....................        bit_set(data2,7); 
....................     data1 = data1 >>1; 
....................     *(((unsigned int8 *)(&y))+3) = data1; 
....................     *(((unsigned int8 *)(&y))+2) = data2; 
....................      
....................   #endif 
....................  
....................    do { 
....................       res=y; 
....................       y+=(x/y); 
....................  
....................       #if !defined(__PCD__) 
....................      (*p)--; 
....................    #endif 
....................     
....................    #if defined(__PCD__) 
....................     data1 = *(((unsigned int8 *)(&y))+3); 
....................     data2 = *(((unsigned int8 *)(&y))+2); 
....................     rotate_left(&data1,1); 
....................     if(bit_test(data2,7)) 
....................        bit_set(data1,0);     
....................     data1--; 
....................     bit_clear(data2,7); 
....................     if(bit_test(data1,0)) 
....................        bit_set(data2,7); 
....................     data1 = data1 >>1; 
....................     *(((unsigned int8 *)(&y))+3) = data1; 
....................     *(((unsigned int8 *)(&y))+2) = data2; 
....................      
....................   #endif 
....................    } while(res != y); 
....................  
....................    return(res); 
.................... } 
.................... //Overloaded functions for sqrt() for PCD 
.................... // Overloaded function sqrt() for data type - Float48 
.................... #if defined(__PCD__) 
.................... float48 sqrt(float48 x) 
.................... { 
....................    float48 y, res; 
....................    unsigned int16 data1,data2; 
....................    unsigned int8 *p; 
....................  
....................    #ifdef _ERRNO 
....................    if(x < 0) 
....................    { 
....................       errno=EDOM; 
....................    } 
....................    #endif 
....................  
....................    if( x<=0.0) 
....................       return(0.0); 
....................  
....................    y=x; 
....................     
....................    #if !defined(__PCD__) 
....................     p=&y; 
....................    (*p)=(unsigned int8)((((unsigned int16)(*p)) + 127) >> 1); 
....................    #endif 
....................     
....................    #if defined(__PCD__) 
....................     p = (((unsigned int8 *)(&y))+5); 
....................     data1 = *(((unsigned int8 *)(&y))+5); 
....................     data2 = *(((unsigned int8 *)(&y))+4); 
....................     rotate_left(&data1,1); 
....................     if(bit_test(data2,7)) 
....................        bit_set(data1,0);     
....................     data1 = ((data1+127) >>1); 
....................     bit_clear(data2,7); 
....................     if(bit_test(data1,0)) 
....................        bit_set(data2,7); 
....................     data1 = data1 >>1; 
....................     *(((unsigned int8 *)(&y))+5) = data1; 
....................     *(((unsigned int8 *)(&y))+4) = data2; 
....................      
....................   #endif 
....................  
....................    do { 
....................       res=y; 
....................       y+=(x/y); 
....................  
....................       #if !defined(__PCD__) 
....................      (*p)--; 
....................    #endif 
....................     
....................     data1 = *(((unsigned int8 *)(&y))+5); 
....................     data2 = *(((unsigned int8 *)(&y))+4); 
....................     rotate_left(&data1,1); 
....................     if(bit_test(data2,7)) 
....................        bit_set(data1,0);     
....................     data1--; 
....................     bit_clear(data2,7); 
....................     if(bit_test(data1,0)) 
....................        bit_set(data2,7); 
....................     data1 = data1 >>1; 
....................     *(((unsigned int8 *)(&y))+5) = data1; 
....................     *(((unsigned int8 *)(&y))+4) = data2; 
....................      
....................    } while(res != y); 
....................  
....................    return(res); 
.................... } 
....................  
.................... // Overloaded function sqrt() for data type - Float64 
.................... float64 sqrt(float64 x) 
.................... { 
....................    float64 y, res; 
....................    unsigned int16 *p; 
....................    unsigned int16 temp1,temp2; 
....................  
....................    #ifdef _ERRNO 
....................    if(x < 0) 
....................    { 
....................       errno=EDOM; 
....................    } 
....................    #endif 
....................  
....................    if( x<=0.0) 
....................       return(0.0); 
....................  
....................    y=x; 
....................    p= (((unsigned int16 *)(&y))+3); 
....................    temp1 = *p; 
....................    temp2 = *p; 
....................    bit_clear(temp1,15); 
....................    temp1 = (temp1>>4)+1023; 
....................    temp1 = temp1 >> 1; 
....................    temp1 = (temp1<<4) & 0xFFF0; 
....................    if(bit_test(temp2,15)) 
....................       bit_set(temp1,15); 
....................    temp2 = temp2 & 0x000F; 
....................    temp1 ^= temp2; 
....................     
....................    (*p) = temp1; 
....................     
....................    do { 
....................       res=y; 
....................       y+=(x/y); 
....................      temp1 = *p; 
....................      temp2 = *p; 
....................      bit_clear(temp1,15); 
....................      temp1 = (temp1>>4); 
....................      temp1--; 
....................      temp1 = (temp1<<4) & 0xFFF0; 
....................      if(bit_test(temp2,15)) 
....................         bit_set(temp1,15); 
....................      temp2 = temp2 & 0x000F; 
....................      temp1 ^= temp2; 
....................      (*p) = temp1; 
....................  
....................    } while(res != y); 
....................  
....................    return(res); 
.................... } 
.................... #endif 
....................  
.................... ////////////////////////////// Trig Functions ////////////////////////////// 
.................... #ifdef PI_DIV_BY_TWO_INV 
.................... #undef PI_DIV_BY_TWO_INV 
.................... #endif 
.................... #define PI_DIV_BY_TWO_INV 0.63661977236758134 
.................... #ifdef PI_DIV_BY_TWO 
.................... #undef PI_DIV_BY_TWO 
.................... #endif 
.................... #define PI_DIV_BY_TWO   1.5707963267948966 
.................... #ifdef TWOBYPI 
.................... #undef TWOBYPI 
.................... #endif 
.................... #define TWOBYPI          0.6366197723675813 
....................  
.................... //////////////////////////////////////////////////////////////////////////// 
.................... //   float cos(float x) 
.................... //////////////////////////////////////////////////////////////////////////// 
.................... // Description : returns the cosine value of the angle x, which is in radian 
.................... // Date : 9/20/2001 
.................... // 
.................... float32 cos(float32 x) 
.................... { 
....................    float32 y, t, t2 = 1.0; 
....................    unsigned int8 quad, i; 
....................    float32 frac; 
....................    float32 p[5] = {                    //by the series definition for cosine 
....................       -0.49999999456337096,            // sum ( ( (-1)^n * x^2n )/(2n)! ) 
....................        0.04166663896921267, 
....................       -0.00138883894522527, 
....................        0.00002476138231734, 
....................       -0.00000026070414770 
....................       //-0.00000000001147, 
....................       // 0.00000000000005 
....................    }; 
....................  
....................    if (x < 0) x = -x;                  // absolute value of input 
....................  
....................    quad = (unsigned int8)(x * PI_DIV_BY_TWO_INV);    // quadrant 
....................    frac = (x * PI_DIV_BY_TWO_INV) - quad;  // fractional part of input 
....................    quad = quad % 4;                    // quadrant (0 to 3) 
....................  
....................    if (quad == 0 || quad == 2) 
....................       t = frac * PI_DIV_BY_TWO; 
....................    else if (quad == 1) 
....................       t = (1-frac) * PI_DIV_BY_TWO; 
....................    else // should be 3 
....................       t = (frac-1) * PI_DIV_BY_TWO; 
....................  
....................    y = 1.0; 
....................    t = t * t; 
....................    for (i = 0; i <= 4; i++) 
....................    { 
....................       t2 = t2 * t; 
....................       y = y + p[i] * t2; 
....................    } 
....................  
....................    if (quad == 2 || quad == 1) 
....................       y = -y;  // correct sign 
....................  
....................    return (y); 
.................... } 
....................  
....................  
.................... //Overloaded functions for cos() for PCD 
.................... // Overloaded function cos() for data type - Float48 
.................... #if defined(__PCD__) 
.................... float48 cos(float48 x) 
.................... { 
....................    float48 y, t, t2 = 1.0; 
....................    unsigned int8 quad, i; 
....................    float48 frac; 
....................    float48 p[6] = {                    //by the series definition for cosine 
....................       -0.5,                            // sum ( ( (-1)^n * x^2n )/(2n)! ) 
....................        0.04166666666667, 
....................       -0.00138888888889, 
....................        0.00002480158730, 
....................       -0.00000027557319, 
....................        0.00000000208767, 
....................       //-0.00000000001147, 
....................       // 0.00000000000005 
....................    }; 
....................  
....................    if (x < 0) x = -x;                  // absolute value of input 
....................  
....................    quad = (unsigned int8)(x * PI_DIV_BY_TWO_INV);    // quadrant 
....................    frac = (x * PI_DIV_BY_TWO_INV) - quad;  // fractional part of input 
....................    quad = quad % 4;                    // quadrant (0 to 3) 
....................  
....................    if (quad == 0 || quad == 2) 
....................       t = frac * PI_DIV_BY_TWO; 
....................    else if (quad == 1) 
....................       t = (1-frac) * PI_DIV_BY_TWO; 
....................    else // should be 3 
....................       t = (frac-1) * PI_DIV_BY_TWO; 
....................  
....................    y = 0.999999999781; 
....................    t = t * t; 
....................    for (i = 0; i <= 5; i++) 
....................    { 
....................       t2 = t2 * t; 
....................       y = y + p[i] * t2; 
....................    } 
....................  
....................    if (quad == 2 || quad == 1) 
....................       y = -y;  // correct sign 
....................  
....................    return (y); 
.................... } 
....................  
.................... // Overloaded function cos() for data type - Float64 
.................... float64 cos(float64 x) 
.................... { 
....................    float64 y, t, t2 = 1.0; 
....................    unsigned int8 quad, i; 
....................    float64 frac; 
....................    float64 p_64[9] = {               //by the series definition for cosine 
....................      -0.49999999999998740,           // sum ( ( (-1)^n * x^2n )/(2n)! )              
....................       0.04166666666656518, 
....................      -0.00138888888851691, 
....................       0.00002480158658490, 
....................      -0.00000027557239796, 
....................       0.00000000208715031, 
....................      -0.00000000001126577, 
....................       0.00000000000000427, 
....................       0.00000000000000372}; 
....................  
....................    if (x < 0) x = -x;                  // absolute value of input 
....................  
....................    quad = (unsigned int8)(x * PI_DIV_BY_TWO_INV);    // quadrant 
....................    frac = (x * PI_DIV_BY_TWO_INV) - quad;  // fractional part of input 
....................    quad = quad % 4;                    // quadrant (0 to 3) 
....................  
....................    if (quad == 0 || quad == 2) 
....................       t = frac * PI_DIV_BY_TWO; 
....................    else if (quad == 1) 
....................       t = (1-frac) * PI_DIV_BY_TWO; 
....................    else // should be 3 
....................       t = (frac-1) * PI_DIV_BY_TWO; 
....................  
....................    y = 1.0; 
....................    t = t * t; 
....................    for (i = 0; i <= 8; i++) 
....................    { 
....................       t2 = t2 * t; 
....................       y = y + p_64[i] * t2; 
....................    } 
....................  
....................    if (quad == 2 || quad == 1) 
....................       y = -y;  // correct sign 
....................  
....................    return (y); 
.................... } 
....................  
.................... #endif 
....................  
.................... //////////////////////////////////////////////////////////////////////////// 
.................... //   float sin(float x) 
.................... //////////////////////////////////////////////////////////////////////////// 
.................... // Description : returns the sine value of the angle x, which is in radian 
.................... // Date : 9/20/2001 
.................... // 
.................... float32 sin(float32 x) 
.................... { 
....................    return cos(x - PI_DIV_BY_TWO); 
.................... } 
....................  
.................... //Overloaded functions for sin() for PCD 
.................... // Overloaded function sin() for data type - Float48 
.................... #if defined(__PCD__) 
.................... float48 sin(float48 x) 
.................... { 
....................    return cos(x - PI_DIV_BY_TWO); 
.................... } 
....................  
.................... // Overloaded function sin() for data type - Float48 
.................... float64 sin(float64 x) 
.................... { 
....................    return cos(x - PI_DIV_BY_TWO); 
.................... } 
.................... #endif 
....................  
.................... //////////////////////////////////////////////////////////////////////////// 
.................... //   float tan(float x) 
.................... //////////////////////////////////////////////////////////////////////////// 
.................... // Description : returns the tangent value of the angle x, which is in radian 
.................... // Date : 9/20/2001 
.................... // 
.................... float32 tan(float32 x) 
.................... { 
....................    float32 c, s; 
....................  
....................    c = cos(x); 
....................    if (c == 0.0) 
....................       return (1.0e+36); 
....................  
....................    s = sin(x); 
....................    return(s/c); 
.................... } 
.................... //Overloaded functions for tan() for PCD 
.................... // Overloaded function tan() for data type - Float48 
.................... #if defined(__PCD__) 
.................... float48 tan(float48 x) 
.................... { 
....................    float48 c, s; 
....................  
....................    c = cos(x); 
....................    if (c == 0.0) 
....................       return (1.0e+36); 
....................  
....................    s = sin(x); 
....................    return(s/c); 
.................... } 
....................  
.................... // Overloaded function tan() for data type - Float48 
.................... float64 tan(float64 x) 
.................... { 
....................    float64 c, s; 
....................  
....................    c = cos(x); 
....................    if (c == 0.0) 
....................       return (1.0e+36); 
....................  
....................    s = sin(x); 
....................    return(s/c); 
.................... } 
.................... #endif 
....................  
.................... float32 const pas[3] = {0.49559947, -4.6145309, 5.6036290}; 
.................... float32 const qas[3] = {1.0000000,  -5.5484666, 5.6036290}; 
....................  
.................... float32 ASIN_COS(float32 x, unsigned int8 n) 
.................... { 
....................    float32 y, res, r, y2; 
....................    int1 s; 
....................    #ifdef _ERRNO 
....................    if(x <-1 || x > 1) 
....................    { 
....................       errno=EDOM; 
....................    } 
....................    #endif 
....................    s = 0; 
....................    y = x; 
....................  
....................    if (x < 0) 
....................    { 
....................       s = 1; 
....................       y = -y; 
....................    } 
....................  
....................    if (y > 0.5) 
....................    { 
....................       y = sqrt((1.0 - y)*0.5); 
....................       n += 2; 
....................    } 
....................  
....................    y2=y*y; 
....................  
....................    res = pas[0]*y2 + pas[1]; 
....................    res = res*y2 + pas[2]; 
....................  
....................    r = qas[0]*y2 + qas[1]; 
....................    r = r*y2 + qas[2]; 
....................  
....................    res = y*res/r; 
....................  
....................    if (n & 2)     // |x| > 0.5 
....................       res = PI_DIV_BY_TWO - 2.0*res; 
....................    if (s) 
....................       res = -res; 
....................    if (n & 1)           // take arccos 
....................       res = PI_DIV_BY_TWO - res; 
....................  
....................    return(res); 
.................... } 
....................  
....................  
.................... //Overloaded functions for ASIN_COS() for PCD 
.................... // Overloaded function ASIN_COS() for data type - Float48 
.................... #if defined(__PCD__) 
.................... float48 ASIN_COS(float48 x, unsigned int8 n) 
.................... { 
....................    float48 y, res, r, y2; 
....................    int1 s; 
....................    #ifdef _ERRNO 
....................    if(x <-1 || x > 1) 
....................    { 
....................       errno=EDOM; 
....................    } 
....................    #endif 
....................    s = 0; 
....................    y = x; 
....................  
....................    if (x < 0) 
....................    { 
....................       s = 1; 
....................       y = -y; 
....................    } 
....................  
....................    if (y > 0.5) 
....................    { 
....................       y = sqrt((1.0 - y)*0.5); 
....................       n += 2; 
....................    } 
....................  
....................    y2=y*y; 
....................  
....................    res = pas[0]*y2 + pas[1]; 
....................    res = res*y2 + pas[2]; 
....................  
....................    r = qas[0]*y2 + qas[1]; 
....................    r = r*y2 + qas[2]; 
....................  
....................    res = y*res/r; 
....................  
....................    if (n & 2)     // |x| > 0.5 
....................       res = PI_DIV_BY_TWO - 2.0*res; 
....................    if (s) 
....................       res = -res; 
....................    if (n & 1)           // take arccos 
....................       res = PI_DIV_BY_TWO - res; 
....................  
....................    return(res); 
.................... } 
....................  
.................... // Overloaded function ASIN_COS() for data type - Float64 
.................... double pas_64[5]={1.000000000000000,-2.069938587724477,1.421444580548907, 
....................                  -0.360690137621842,0.024929451660228}; 
....................  
.................... double qas_64[5]={-2.236605254391134,1.719212122946451,-0.524122954476133, 
....................                    0.052808872045749,-0.000662536036570}; 
....................                     
.................... float64 ASIN_COS(float64 x, unsigned int8 n) 
.................... { 
....................    float64 y, res, r, y2; 
....................    int1 s; 
....................    #ifdef _ERRNO 
....................    if(x <-1 || x > 1) 
....................    { 
....................       errno=EDOM; 
....................    } 
....................    #endif 
....................    s = 0; 
....................    y = x; 
....................  
....................    if (x < 0) 
....................    { 
....................       s = 1; 
....................       y = -y; 
....................    } 
....................  
....................    if (y > 0.5) 
....................    { 
....................       y = sqrt((1.0 - y)*0.5); 
....................       n += 2; 
....................    } 
....................  
....................    y2=y*y; 
....................  
....................    res = pas_64[4]*y2 + pas_64[3]; 
....................    res = res*y2 + pas_64[2]; 
....................    res = res*y2 + pas_64[1]; 
....................    res = res*y2 + pas_64[0]; 
....................  
....................    r = qas_64[4]*y2 + qas_64[3]; 
....................    r = r*y2 + qas_64[2]; 
....................    r = r*y2 + qas_64[1]; 
....................    r = r*y2 + qas_64[0]; 
....................    r = r*y2 + 1.0; 
....................  
....................    res = y*res/r; 
....................  
....................    if (n & 2)     // |x| > 0.5 
....................       res = PI_DIV_BY_TWO - 2.0*res; 
....................    if (s) 
....................       res = -res; 
....................    if (n & 1)           // take arccos 
....................       res = PI_DIV_BY_TWO - res; 
....................  
....................    return(res); 
.................... } 
.................... #endif 
....................  
.................... //////////////////////////////////////////////////////////////////////////// 
.................... //   float asin(float x) 
.................... //////////////////////////////////////////////////////////////////////////// 
.................... // Description : returns the arcsine value of the value x. 
.................... // Date : N/A 
.................... // 
.................... float32 asin(float32 x) 
.................... { 
....................    float32 r; 
....................  
....................    r = ASIN_COS(x, 0); 
....................    return(r); 
.................... } 
.................... //Overloaded functions for asin() for PCD 
.................... // Overloaded function asin() for data type - Float48 
.................... #if defined(__PCD__) 
.................... float48 asin(float48 x) 
.................... { 
....................    float48 r; 
....................  
....................    r = ASIN_COS(x, 0); 
....................    return(r); 
.................... } 
....................  
.................... // Overloaded function asin() for data type - Float64 
.................... float64 asin(float64 x) 
.................... { 
....................    float64 r; 
....................  
....................    r = ASIN_COS(x, 0); 
....................    return(r); 
.................... } 
.................... #endif 
....................  
.................... //////////////////////////////////////////////////////////////////////////// 
.................... //   float acos(float x) 
.................... //////////////////////////////////////////////////////////////////////////// 
.................... // Description : returns the arccosine value of the value x. 
.................... // Date : N/A 
.................... // 
.................... float32 acos(float32 x) 
.................... { 
....................    float32 r; 
....................  
....................    r = ASIN_COS(x, 1); 
....................    return(r); 
.................... } 
.................... //Overloaded functions for acos() for PCD 
.................... // Overloaded function acos() for data type - Float48 
.................... #if defined(__PCD__) 
.................... float48 acos(float48 x) 
.................... { 
....................    float48 r; 
....................  
....................    r = ASIN_COS(x, 1); 
....................    return(r); 
.................... } 
....................  
.................... // Overloaded function acos() for data type - Float64 
.................... float64 acos(float64 x) 
.................... { 
....................    float64 r; 
....................  
....................    r = ASIN_COS(x, 1); 
....................    return(r); 
.................... } 
.................... #endif 
....................  
.................... float32 const pat[4] = {0.17630401, 5.6710795, 22.376096, 19.818457}; 
.................... float32 const qat[4] = {1.0000000,  11.368190, 28.982246, 19.818457}; 
....................  
.................... //////////////////////////////////////////////////////////////////////////// 
.................... //   float atan(float x) 
.................... //////////////////////////////////////////////////////////////////////////// 
.................... // Description : returns the arctangent value of the value x. 
.................... // Date : N/A 
.................... // 
.................... float32 atan(float32 x) 
.................... { 
....................    float32 y, res, r; 
....................    int1 s, flag; 
....................  
....................    s = 0; 
....................    flag = 0; 
....................    y = x; 
....................  
....................    if (x < 0) 
....................    { 
....................       s = 1; 
....................       y = -y; 
....................    } 
....................  
....................    if (y > 1.0) 
....................    { 
....................       y = 1.0/y; 
....................       flag = 1; 
....................    } 
....................  
....................    res = pat[0]*y*y + pat[1]; 
....................    res = res*y*y + pat[2]; 
....................    res = res*y*y + pat[3]; 
....................  
....................    r = qat[0]*y*y + qat[1]; 
....................    r = r*y*y + qat[2]; 
....................    r = r*y*y + qat[3]; 
....................  
....................    res = y*res/r; 
....................  
....................  
....................    if (flag)                              // for |x| > 1 
....................       res = PI_DIV_BY_TWO - res; 
....................    if (s) 
....................       res = -res; 
....................  
....................    return(res); 
.................... } 
.................... //Overloaded functions for atan() for PCD 
.................... // Overloaded function atan() for data type - Float48 
.................... #if defined(__PCD__) 
.................... float48 atan(float48 x) 
.................... { 
....................    float48 y, res, r; 
....................    int1 s, flag; 
....................  
....................    s = 0; 
....................    flag = 0; 
....................    y = x; 
....................  
....................    if (x < 0) 
....................    { 
....................       s = 1; 
....................       y = -y; 
....................    } 
....................  
....................    if (y > 1.0) 
....................    { 
....................       y = 1.0/y; 
....................       flag = 1; 
....................    } 
....................  
....................    res = pat[0]*y*y + pat[1]; 
....................    res = res*y*y + pat[2]; 
....................    res = res*y*y + pat[3]; 
....................  
....................    r = qat[0]*y*y + qat[1]; 
....................    r = r*y*y + qat[2]; 
....................    r = r*y*y + qat[3]; 
....................  
....................    res = y*res/r; 
....................  
....................  
....................    if (flag)                              // for |x| > 1 
....................       res = PI_DIV_BY_TWO - res; 
....................    if (s) 
....................       res = -res; 
....................  
....................    return(res); 
.................... } 
....................  
.................... float64 pat_64[6]={0.999999999999999,2.249923645595566,1.771541617806449, 
....................                    0.579678874003185,0.072162702162882,0.002281100141660}; 
....................  
.................... float64 qat_64[6]={2.583256978928510,2.432627277466967,1.016760379885393, 
....................                    0.182482977188688,0.011155377971690,0.000100013019160}; 
.................... // Overloaded function atan() for data type - Float64 
.................... float64 atan(float64 x) 
.................... { 
....................    float64 y,y2, res, r; 
....................    int1 s, flag; 
....................  
....................    s = 0; 
....................    flag = 0; 
....................    y = x; 
....................  
....................    if (x < 0) 
....................    { 
....................       s = 1; 
....................       y = -y; 
....................    } 
....................  
....................    if (y > 1.0) 
....................    { 
....................       y = 1.0/y; 
....................       flag = 1; 
....................    } 
....................    y2 = y*y; 
....................    res = pat_64[5]*y2 + pat_64[4]; 
....................    res = res*y2 + pat_64[3]; 
....................    res = res*y2 + pat_64[2]; 
....................    res = res*y2 + pat_64[1]; 
....................    res = res*y2 + pat_64[0]; 
....................  
....................    r = qat_64[5]*y2 + qat_64[4]; 
....................    r = r*y2 + qat_64[3]; 
....................    r = r*y2 + qat_64[2]; 
....................    r = r*y2 + qat_64[1]; 
....................    r = r*y2 + qat_64[0]; 
....................    r = r*y2 + 1.0; 
....................  
....................    res = y*res/r; 
....................  
....................  
....................    if (flag)                              // for |x| > 1 
....................       res = PI_DIV_BY_TWO - res; 
....................    if (s) 
....................       res = -res; 
....................  
....................    return(res); 
.................... } 
.................... #endif 
....................  
.................... ///////////////////////////////////////////////////////////////////////////// 
.................... //   float atan2(float y, float x) 
.................... ///////////////////////////////////////////////////////////////////////////// 
.................... // Description :computes the principal value of arc tangent of y/x, using the 
.................... // signs of both the arguments to determine the quadrant of the return value 
.................... // Returns : returns the arc tangent of y/x. 
.................... // Date : N/A 
.................... // 
....................  
.................... float32 atan2(float32 y,float32 x) 
.................... { 
....................    float32 z; 
....................    int1 sign; 
....................    unsigned int8 quad; 
....................    sign=0; 
....................    quad=0; //quadrant 
....................    quad=((y<=0.0)?((x<=0.0)?3:4):((x<0.0)?2:1)); 
....................    if(y<0.0) 
....................    { 
....................       sign=1; 
....................       y=-y; 
....................    } 
....................    if(x<0.0) 
....................    { 
....................       x=-x; 
....................    } 
....................    if (x==0.0) 
....................    { 
....................       if(y==0.0) 
....................       { 
....................       #ifdef _ERRNO 
....................       { 
....................          errno=EDOM; 
....................       } 
....................       #endif 
....................       } 
....................       else 
....................       { 
....................          if(sign) 
....................          { 
....................          return (-(PI_DIV_BY_TWO)); 
....................          } 
....................          else 
....................          { 
....................          return (PI_DIV_BY_TWO); 
....................          } 
....................       } 
....................    } 
....................    else 
....................    { 
....................       z=y/x; 
....................       switch(quad) 
....................       { 
....................          case 1: 
....................          { 
....................             return atan(z); 
....................             break; 
....................          } 
....................          case 2: 
....................          { 
.................... //            return (atan(z)+PI_DIV_BY_TWO);  //2L3122 
....................             return (PI-atan(z)); 
....................             break; 
....................          } 
....................          case 3: 
....................          { 
....................             return (atan(z)-PI); 
....................             break; 
....................          } 
....................          case 4: 
....................          { 
....................             return (-atan(z)); 
....................             break; 
....................          } 
....................       } 
....................    } 
.................... } 
....................  
.................... //Overloaded functions for atan2() for PCD 
.................... // Overloaded function atan2() for data type - Float48 
.................... #if defined(__PCD__) 
.................... float48 atan2(float48 y,float48 x) 
.................... { 
....................    float48 z; 
....................    int1 sign; 
....................    unsigned int8 quad; 
....................    sign=0; 
....................    quad=0; //quadrant 
....................    quad=((y<=0.0)?((x<=0.0)?3:4):((x<0.0)?2:1)); 
....................    if(y<0.0) 
....................    { 
....................       sign=1; 
....................       y=-y; 
....................    } 
....................    if(x<0.0) 
....................    { 
....................       x=-x; 
....................    } 
....................    if (x==0.0) 
....................    { 
....................       if(y==0.0) 
....................       { 
....................       #ifdef _ERRNO 
....................       { 
....................          errno=EDOM; 
....................       } 
....................       #endif 
....................       } 
....................       else 
....................       { 
....................          if(sign) 
....................          { 
....................          return (-(PI_DIV_BY_TWO)); 
....................          } 
....................          else 
....................          { 
....................          return (PI_DIV_BY_TWO); 
....................          } 
....................       } 
....................    } 
....................    else 
....................    { 
....................       z=y/x; 
....................       switch(quad) 
....................       { 
....................          case 1: 
....................          { 
....................             return atan(z); 
....................             break; 
....................          } 
....................          case 2: 
....................          { 
.................... //            return (atan(z)+PI_DIV_BY_TWO);  //2L3122 
....................             return (PI-atan(z)); 
....................             break; 
....................          } 
....................          case 3: 
....................          { 
....................             return (atan(z)-PI); 
....................             break; 
....................          } 
....................          case 4: 
....................          { 
....................             return (-atan(z)); 
....................             break; 
....................          } 
....................       } 
....................    } 
.................... } 
....................  
.................... // Overloaded function atan2() for data type - Float64 
.................... float64 atan2(float64 y,float64 x) 
.................... { 
....................    float64 z; 
....................    int1 sign; 
....................    unsigned int8 quad; 
....................    sign=0; 
....................    quad=0; //quadrant 
....................    quad=((y<=0.0)?((x<=0.0)?3:4):((x<0.0)?2:1)); 
....................    if(y<0.0) 
....................    { 
....................       sign=1; 
....................       y=-y; 
....................    } 
....................    if(x<0.0) 
....................    { 
....................       x=-x; 
....................    } 
....................    if (x==0.0) 
....................    { 
....................       if(y==0.0) 
....................       { 
....................       #ifdef _ERRNO 
....................       { 
....................          errno=EDOM; 
....................       } 
....................       #endif 
....................       } 
....................       else 
....................       { 
....................          if(sign) 
....................          { 
....................          return (-(PI_DIV_BY_TWO)); 
....................          } 
....................          else 
....................          { 
....................          return (PI_DIV_BY_TWO); 
....................          } 
....................       } 
....................    } 
....................    else 
....................    { 
....................       z=y/x; 
....................       switch(quad) 
....................       { 
....................          case 1: 
....................          { 
....................             return atan(z); 
....................             break; 
....................          } 
....................          case 2: 
....................          { 
.................... //            return (atan(z)+PI_DIV_BY_TWO);  //2L3122 
....................             return (PI-atan(z)); 
....................             break; 
....................          } 
....................          case 3: 
....................          { 
....................             return (atan(z)-PI); 
....................             break; 
....................          } 
....................          case 4: 
....................          { 
....................             return (-atan(z)); 
....................             break; 
....................          } 
....................       } 
....................    } 
.................... } 
.................... #endif 
....................  
.................... //////////////////// Hyperbolic functions //////////////////// 
....................  
.................... //////////////////////////////////////////////////////////////////////////// 
.................... //   float cosh(float x) 
.................... //////////////////////////////////////////////////////////////////////////// 
.................... // Description : Computes the hyperbolic cosine value of x 
.................... // Returns : returns the hyperbolic cosine value of x 
.................... // Date : N/A 
.................... // 
....................  
.................... float32 cosh(float32 x) 
.................... { 
....................    return ((exp(x)+exp(-x))*0.5); 
.................... } 
.................... //Overloaded functions for cosh() for PCD 
.................... // Overloaded function cosh() for data type - Float48 
.................... #if defined(__PCD__) 
.................... float48 cosh(float48 x) 
.................... { 
....................    return ((exp(x)+exp(-x))*0.5); 
.................... } 
....................  
.................... // Overloaded function cosh() for data type - Float64 
.................... float64 cosh(float64 x) 
.................... { 
....................    return ((exp(x)+exp(-x))*0.5); 
.................... } 
.................... #endif 
....................  
.................... //////////////////////////////////////////////////////////////////////////// 
.................... //   float sinh(float x) 
.................... //////////////////////////////////////////////////////////////////////////// 
.................... // Description : Computes the hyperbolic sine value of x 
.................... // Returns : returns the hyperbolic sine value of x 
.................... // Date : N/A 
.................... // 
....................  
.................... float32 sinh(float32 x) 
.................... { 
....................  
....................    return ((exp(x) - exp(-x))*0.5); 
.................... } 
.................... //Overloaded functions for sinh() for PCD 
.................... // Overloaded function sinh() for data type - Float48 
.................... #if defined(__PCD__) 
.................... float48 sinh(float48 x) 
.................... { 
....................  
....................    return ((exp(x) - exp(-x))*0.5); 
.................... } 
....................  
.................... // Overloaded function sinh() for data type - Float48 
.................... float64 sinh(float64 x) 
.................... { 
....................  
....................    return ((exp(x) - exp(-x))*0.5); 
.................... } 
.................... #endif 
....................  
.................... //////////////////////////////////////////////////////////////////////////// 
.................... //   float tanh(float x) 
.................... //////////////////////////////////////////////////////////////////////////// 
.................... // Description : Computes the hyperbolic tangent value of x 
.................... // Returns : returns the hyperbolic tangent value of x 
.................... // Date : N/A 
.................... // 
....................  
.................... float32 tanh(float32 x) 
.................... { 
....................    return(sinh(x)/cosh(x)); 
.................... } 
.................... //Overloaded functions for tanh() for PCD 
.................... // Overloaded function tanh() for data type - Float48 
.................... #if defined(__PCD__) 
.................... float48 tanh(float48 x) 
.................... { 
....................    return(sinh(x)/cosh(x)); 
.................... } 
....................  
.................... // Overloaded function tanh() for data type - Float64 
.................... float64 tanh(float64 x) 
.................... { 
....................    return(sinh(x)/cosh(x)); 
.................... } 
.................... #endif 
....................  
.................... //////////////////////////////////////////////////////////////////////////// 
.................... //   float frexp(float x, signed int *exp) 
.................... //////////////////////////////////////////////////////////////////////////// 
.................... // Description : breaks a floating point number into a normalized fraction and an integral 
.................... // power of 2. It stores the integer in the signed int object pointed to by exp. 
.................... // Returns : returns the value x, such that x is a double with magnitude in the interval 
.................... // [1/2,1) or zero, and value equals x times 2 raised to the power *exp.If value is zero, 
.................... // both parts of the result are zero. 
.................... // Date : N/A 
.................... // 
....................  
.................... #define LOG2 .30102999566398119521 
.................... #define LOG2_INV 3.32192809488736234787 
.................... float32 frexp(float32 x, signed int8 *exp) 
.................... { 
....................    float32 res; 
....................    int1 sign = 0; 
....................    if(x == 0.0) 
....................    { 
....................       *exp=0; 
....................       return (0.0); 
....................    } 
....................    if(x < 0.0) 
....................    { 
....................      x=-x; 
....................      sign=1; 
....................    } 
....................    if (x > 1.0) 
....................    { 
....................       *exp=(ceil(log10(x)*LOG2_INV)); 
....................       res=x/(pow(2, *exp)); 
....................       if (res == 1) 
....................       { 
....................          *exp=*exp+1; 
....................           res=.5; 
....................       } 
....................    } 
....................    else 
....................    { 
....................       if(x < 0.5) 
....................       { 
....................          *exp=-1; 
....................          res=x*2; 
....................       } 
....................       else 
....................       { 
....................          *exp=0; 
....................           res=x; 
....................       } 
....................    } 
....................    if(sign) 
....................    { 
....................       res=-res; 
....................    } 
....................    return res; 
.................... } 
....................  
.................... //Overloaded functions for frexp() for PCD 
.................... // Overloaded function frexp() for data type - Float48 
.................... #if defined(__PCD__) 
.................... float48 frexp(float48 x, signed int8 *exp) 
.................... { 
....................    float48 res; 
....................    int1 sign = 0; 
....................    if(x == 0.0) 
....................    { 
....................       *exp=0; 
....................       return (0.0); 
....................    } 
....................    if(x < 0.0) 
....................    { 
....................      x=-x; 
....................      sign=1; 
....................    } 
....................    if (x > 1.0) 
....................    { 
....................       *exp=(ceil(log10(x)*LOG2_INV)); 
....................       res=x/(pow(2, *exp)); 
....................       if (res == 1) 
....................       { 
....................          *exp=*exp+1; 
....................           res=.5; 
....................       } 
....................    } 
....................    else 
....................    { 
....................       if(x < 0.5) 
....................       { 
....................          *exp=-1; 
....................          res=x*2; 
....................       } 
....................       else 
....................       { 
....................          *exp=0; 
....................           res=x; 
....................       } 
....................    } 
....................    if(sign) 
....................    { 
....................       res=-res; 
....................    } 
....................    return res; 
.................... } 
....................  
.................... // Overloaded function frexp() for data type - Float64 
.................... float64 frexp(float64 x, signed int8 *exp) 
.................... { 
....................    float64 res; 
....................    int1 sign = 0; 
....................    if(x == 0.0) 
....................    { 
....................       *exp=0; 
....................       return (0.0); 
....................    } 
....................    if(x < 0.0) 
....................    { 
....................      x=-x; 
....................      sign=1; 
....................    } 
....................    if (x > 1.0) 
....................    { 
....................       *exp=(ceil(log10(x)*LOG2_INV)); 
....................       res=x/(pow(2, *exp)); 
....................       if (res == 1) 
....................       { 
....................          *exp=*exp+1; 
....................           res=.5; 
....................       } 
....................    } 
....................    else 
....................    { 
....................       if(x < 0.5) 
....................       { 
....................          *exp=-1; 
....................          res=x*2; 
....................       } 
....................       else 
....................       { 
....................          *exp=0; 
....................           res=x; 
....................       } 
....................    } 
....................    if(sign) 
....................    { 
....................       res=-res; 
....................    } 
....................    return res; 
.................... } 
.................... #endif 
....................  
.................... ////////////////////////////////////////////////////////////////////////////// 
.................... //   float ldexp(float x, signed int *exp) 
.................... ////////////////////////////////////////////////////////////////////////////// 
.................... // Description : multiplies a floating point number by an integral power of 2. 
.................... // Returns : returns the value of x times 2 raised to the power exp. 
.................... // Date : N/A 
.................... // 
....................  
.................... float32 ldexp(float32 value, signed int8 exp) 
.................... { 
....................    return (value * pow(2,exp)); 
.................... } 
.................... //Overloaded functions for ldexp() for PCD 
.................... // Overloaded function ldexp() for data type - Float48 
....................  
.................... #if defined(__PCD__) 
.................... float48 ldexp(float48 value, signed int8 exp) 
.................... { 
....................    return (value * pow(2,exp)); 
.................... } 
.................... // Overloaded function ldexp() for data type - Float64 
.................... float64 ldexp(float64 value, signed int8 exp) 
.................... { 
....................    return (value * pow(2,exp)); 
.................... } 
.................... #endif 
....................  
.................... #endif 
....................  
.................... #include <7segmentos.h> 
.................... // Declaracin de las constantes para el display. 
.................... //#include <7segmentos.h> 
.................... /*int DIGITOS2[] = 
.................... { 
....................    0b01000000, //Cdigo del dgito 0 
....................    0b01111001, //Cdigo del dgito 1 
....................    0b00100100, //Cdigo del dgito 2 
....................    0b00110000, //Cdigo del dgito 3 
....................    0b00011001, //Cdigo del dgito 4 
....................    0b00010010, //Cdigo del dgito 5 
....................    0b00000010, //Cdigo del dgito 6 
....................    0b01111000, //Cdigo del dgito 7 
....................    0b00000000, //Cdigo del dgito 8 
....................    0b00011000, //Cdigo del dgito 9 
.................... };*/ 
....................  
.................... int DIGITOS[] = 
.................... { 
....................    0b10111111, //Cdigo del dgito 0 
....................    0b10000110, //Cdigo del dgito 1 
....................    0b11011011, //Cdigo del dgito 2 
....................    0b11001111, //Cdigo del dgito 3 
....................    0b11100110, //Cdigo del dgito 4 
....................    0b11101101, //Cdigo del dgito 5 
....................    0b11111101, //Cdigo del dgito 6 
....................    0b10000111, //Cdigo del dgito 7 
....................    0b11111111, //Cdigo del dgito 8 
....................    0b11100111, //Cdigo del dgito 9 
.................... }; 
....................  
....................  
.................... //Funcin para visualizar el display dinmico DOBLE CON SIGNO NEGATIVO HUBICADO 
.................... //EN EL PIN B7. 
....................  
.................... /* VOID VerDisplay_DOBLE(SIGNED V1) 
.................... { 
....................     BOOLEAN SIGNO=FALSE; 
....................       
....................      IF(V1<1){ 
....................        
....................       V1=V1*-1; 
....................       SIGNO=TRUE; 
....................       } 
....................  
....................      INT UM; //Variable para guardar las unidades. 
....................      INT DM; //Variable para guardar las decenas. 
....................       UM=V1/10; 
....................       DM=V1%10; 
....................       
....................      IF(SIGNO){ 
....................       
....................       
....................         OUTPUT_B (DIGITOS[UM]|0b10000000); //Visualiza las unidades. 
....................         OUTPUT_high(PIN_C0); //Activa en alto el primer display 
....................         delay_ms (5); //Retado de 10m segundos 
....................         OUTPUT_low (PIN_C1); //Desactiva todos los displays. 
....................         OUTPUT_low (PIN_C0); //Desactiva todos los displays. 
....................        
....................         OUTPUT_B (DIGITOS[DM]|0b10000000); //Visualiza las decenas. 
....................         OUTPUT_high(PIN_C1); //Activa en alto el segundo display 
....................         delay_ms (5); //Retado de 10m segundos 
....................         OUTPUT_low (PIN_C1); //Desactiva todos los displays. 
....................         OUTPUT_low(PIN_C0); //Desactiva todos los displays.    
....................       
....................       
....................       
....................      }ELSE{ 
....................       
....................         OUTPUT_B (DIGITOS[UM]|0b00000000); //Visualiza las unidades. 
....................         OUTPUT_high(PIN_C0); //Activa en alto el primer display 
....................         delay_ms (5); //Retado de 10m segundos 
....................         OUTPUT_low (PIN_C1); //Desactiva todos los displays. 
....................         OUTPUT_low (PIN_C0); //Desactiva todos los displays. 
....................        
....................         OUTPUT_B (DIGITOS[DM]|0b00000000); //Visualiza las decenas. 
....................         OUTPUT_high(PIN_C1); //Activa en alto el segundo display 
....................         delay_ms (5); //Retado de 10m segundos 
....................         OUTPUT_low (PIN_C1); //Desactiva todos los displays. 
....................         OUTPUT_low(PIN_C0); //Desactiva todos los displays.   
....................      } 
.................... } 
.................... */ 
....................  
....................  VOID VerDisplay(SIGNED V1) 
.................... { 
*
11F4:  BCF    5C.0
....................     BOOLEAN SIGNO=FALSE; 
....................       
....................      IF(V1<1){ 
11F6:  BTFSC  5B.7
11F8:  BRA    1200
11FA:  MOVF   5B,W
11FC:  SUBLW  00
11FE:  BNC   120E
....................        
....................       V1=V1*-1; 
1200:  MOVFF  5B,5F
1204:  SETF   x60
1206:  BRA    1160
1208:  MOVFF  01,5B
....................       SIGNO=TRUE; 
120C:  BSF    5C.0
....................       } 
....................  
....................      INT UM; //Variable para guardar las unidades. 
....................      INT DM; //Variable para guardar las decenas. 
....................     
....................      UM=V1/10; 
120E:  MOVFF  5B,5F
1212:  MOVLW  0A
1214:  MOVWF  x60
1216:  RCALL  11AC
1218:  MOVFF  01,5D
....................      DM=V1%10; 
121C:  MOVFF  5B,5F
1220:  MOVLW  0A
1222:  MOVWF  x60
1224:  RCALL  11AC
1226:  MOVFF  00,5E
....................       
....................      IF(SIGNO){ 
122A:  BTFSS  5C.0
122C:  BRA    12AE
....................       
....................       
....................         OUTPUT_B (DIGITOS[UM]); //Visualiza las unidades. 
122E:  CLRF   03
1230:  MOVF   5D,W
1232:  ADDLW  19
1234:  MOVWF  FE9
1236:  MOVLW  00
1238:  ADDWFC 03,W
123A:  MOVWF  FEA
123C:  MOVFF  FEF,5F
1240:  CLRF   F93
1242:  MOVFF  5F,F8A
....................         OUTPUT_high(PIN_C1); //Activa en alto el primer display 
1246:  BCF    F94.1
1248:  BSF    F8B.1
....................         delay_ms (5); //Retado de 10m segundos 
124A:  MOVLW  05
124C:  MOVWF  5F
124E:  CALL   01D6
....................         OUTPUT_low (PIN_C0); //Desactiva todos los displays. 
1252:  BCF    F94.0
1254:  BCF    F8B.0
....................         OUTPUT_low (PIN_C1); //Desactiva todos los displays. 
1256:  BCF    F94.1
1258:  BCF    F8B.1
....................         OUTPUT_low (PIN_C2); //Desactiva todos los displays. 
125A:  BCF    F94.2
125C:  BCF    F8B.2
....................          
....................         OUTPUT_B (DIGITOS[DM]); //Visualiza las decenas. 
125E:  CLRF   03
1260:  MOVF   5E,W
1262:  ADDLW  19
1264:  MOVWF  FE9
1266:  MOVLW  00
1268:  ADDWFC 03,W
126A:  MOVWF  FEA
126C:  MOVFF  FEF,5F
1270:  CLRF   F93
1272:  MOVFF  5F,F8A
....................         OUTPUT_high(PIN_C2); //Activa en alto el segundo display 
1276:  BCF    F94.2
1278:  BSF    F8B.2
....................         delay_ms (5); //Retado de 10m segundos 
127A:  MOVLW  05
127C:  MOVWF  5F
127E:  CALL   01D6
....................         OUTPUT_low (PIN_C0); //Desactiva todos los displays. 
1282:  BCF    F94.0
1284:  BCF    F8B.0
....................         OUTPUT_low (PIN_C1); //Desactiva todos los displays. 
1286:  BCF    F94.1
1288:  BCF    F8B.1
....................         OUTPUT_low (PIN_C2); //Desactiva todos los displays. 
128A:  BCF    F94.2
128C:  BCF    F8B.2
....................           
....................         OUTPUT_B (0b11000000); //Visualiza las decenas. 
128E:  CLRF   F93
1290:  MOVLW  C0
1292:  MOVWF  F8A
....................         OUTPUT_high(PIN_C0); //Activa en alto el segundo display 
1294:  BCF    F94.0
1296:  BSF    F8B.0
....................         delay_ms (5); //Retado de 10m segundos 
1298:  MOVLW  05
129A:  MOVWF  5F
129C:  CALL   01D6
....................         OUTPUT_low (PIN_C0); //Desactiva todos los displays. 
12A0:  BCF    F94.0
12A2:  BCF    F8B.0
....................         OUTPUT_low (PIN_C1); //Desactiva todos los displays. 
12A4:  BCF    F94.1
12A6:  BCF    F8B.1
....................         OUTPUT_low (PIN_C2); //Desactiva todos los displays. 
12A8:  BCF    F94.2
12AA:  BCF    F8B.2
....................       
....................      }ELSE{ 
12AC:  BRA    130E
....................       
....................         OUTPUT_B (DIGITOS[UM]); //Visualiza las unidades. 
12AE:  CLRF   03
12B0:  MOVF   5D,W
12B2:  ADDLW  19
12B4:  MOVWF  FE9
12B6:  MOVLW  00
12B8:  ADDWFC 03,W
12BA:  MOVWF  FEA
12BC:  MOVFF  FEF,5F
12C0:  CLRF   F93
12C2:  MOVFF  5F,F8A
....................         OUTPUT_high(PIN_C1); //Activa en alto el primer display 
12C6:  BCF    F94.1
12C8:  BSF    F8B.1
....................         delay_ms (5); //Retado de 10m segundos 
12CA:  MOVLW  05
12CC:  MOVWF  5F
12CE:  CALL   01D6
....................         OUTPUT_low (PIN_C0); //Desactiva todos los displays. 
12D2:  BCF    F94.0
12D4:  BCF    F8B.0
....................         OUTPUT_low (PIN_C1); //Desactiva todos los displays. 
12D6:  BCF    F94.1
12D8:  BCF    F8B.1
....................         OUTPUT_low (PIN_C2); //Desactiva todos los displays. 
12DA:  BCF    F94.2
12DC:  BCF    F8B.2
....................          
....................         OUTPUT_B (DIGITOS[DM]); //Visualiza las decenas. 
12DE:  CLRF   03
12E0:  MOVF   5E,W
12E2:  ADDLW  19
12E4:  MOVWF  FE9
12E6:  MOVLW  00
12E8:  ADDWFC 03,W
12EA:  MOVWF  FEA
12EC:  MOVFF  FEF,5F
12F0:  CLRF   F93
12F2:  MOVFF  5F,F8A
....................         OUTPUT_high(PIN_C2); //Activa en alto el segundo display 
12F6:  BCF    F94.2
12F8:  BSF    F8B.2
....................         delay_ms (5); //Retado de 10m segundos 
12FA:  MOVLW  05
12FC:  MOVWF  5F
12FE:  CALL   01D6
....................         OUTPUT_low (PIN_C0); //Desactiva todos los displays. 
1302:  BCF    F94.0
1304:  BCF    F8B.0
....................         OUTPUT_low (PIN_C1); //Desactiva todos los displays. 
1306:  BCF    F94.1
1308:  BCF    F8B.1
....................         OUTPUT_low (PIN_C2); //Desactiva todos los displays. 
130A:  BCF    F94.2
130C:  BCF    F8B.2
....................          
....................      } 
.................... } 
130E:  RETURN 0
....................  
....................  /*VOID VerDisplayALT(INT V1) 
.................... { 
....................     
....................      INT D; //Variable para guardar las unidades. 
....................      INT C; //Variable para guardar las decenas. 
....................      INT U; //Variable para guardar las unidad. 
....................      
....................      C= V1/100; 
....................      D=(V1-C*100)/10; 
....................      U=V1-C*100-D*10; 
....................       
....................         OUTPUT_B (DIGITOS[C]); //Visualiza las unidades. 
....................         OUTPUT_high(PIN_C2); //Activa en alto el primer display 
....................         delay_ms (3); //Retado de 10m segundos 
....................         OUTPUT_low (PIN_C0); //Desactiva todos los displays. 
....................         OUTPUT_low (PIN_C1); //Desactiva todos los displays. 
....................         OUTPUT_low (PIN_C2); //Desactiva todos los displays. 
....................          
....................         OUTPUT_B (DIGITOS[D]); //Visualiza las decenas. 
....................         OUTPUT_high(PIN_C0); //Activa en alto el segundo display 
....................         delay_ms (3); //Retado de 10m segundos 
....................         OUTPUT_low (PIN_C0); //Desactiva todos los displays. 
....................         OUTPUT_low (PIN_C1); //Desactiva todos los displays. 
....................         OUTPUT_low (PIN_C2); //Desactiva todos los displays. 
....................           
....................         OUTPUT_B (DIGITOS[U]); //Visualiza las decenas. 
....................         OUTPUT_high(PIN_C1); //Activa en alto el segundo display 
....................         delay_ms (3); //Retado de 10m segundos 
....................         OUTPUT_low (PIN_C0); //Desactiva todos los displays. 
....................         OUTPUT_low (PIN_C1); //Desactiva todos los displays. 
....................         OUTPUT_low (PIN_C2); //Desactiva todos los displays. 
....................       
.................... }*/ 
....................  
.................... #include <letras.h> 
.................... /////////////////////////////////////////////////////////////////////////////// 
.................... //                     LIBRERI PARA DESHIELADOR                              // 
.................... //   FUNCION: indicar la funcion que sera programada                         // 
.................... //   void letra():  valores que correspondes a valor binario                 // 
.................... //                                                                           // 
.................... //                    0b01110000,//T-->0                                     // 
.................... //                    0b01110111,//A-->1                                     // 
.................... //                    0b01101101,//S-->2                                     // 
.................... //                    0b00000110,//1-->3                                     // 
.................... //                    0b01011011,//2-->4                                     // 
.................... //                    0b01001111,//3-->5                                     // 
.................... //  EJEMPLO:                                                                 // 
.................... //             letra(01) --> TA                                              // 
.................... // #include<letras.h>                                AUTOR: Maykol Rey       // 
.................... ///////////////////////////////////////////////////////////////////////////////                                                                     
....................  
....................  /* int letras[]={ 
....................    0b00000111,//t-->0 
....................    0b00001000,//A-->1 
....................    0b01000110,//C-->2 
....................    0b01000001,//v-->3 
....................    0b00100001,//d-->4 
....................    0b00101111,//r-->5 
....................    0b01001110,//T-->6 
....................    0b00001110,//F-->7 
....................    0b00001100,//P-->8 
....................    0b00000011,//B-->9 
....................    };*/ 
....................   int letras[]={ 
....................    0b11111000,//t-->0 
....................    0b11110111,//A-->1 
....................    0b10111001,//C-->2 
....................    0b10111110,//v-->3 
....................    0b11011110,//d-->4 
....................    0b11010000,//r-->5 
....................    0b10110001,//T-->6 
....................    0b11110001,//F-->7 
....................    0b11110011,//P-->8 
....................    0b11111100,//B-->9 
....................    }; 
....................     
....................    void letra(int valor){ 
....................        
....................       int V1,V2; 
....................       V1=valor%10; 
*
0E98:  MOVFF  5A,5D
0E9C:  MOVLW  0A
0E9E:  MOVWF  5E
0EA0:  RCALL  0E70
0EA2:  MOVFF  00,5B
....................       V2=valor/10; 
0EA6:  MOVFF  5A,5D
0EAA:  MOVLW  0A
0EAC:  MOVWF  5E
0EAE:  RCALL  0E70
0EB0:  MOVFF  01,5C
....................        
....................       output_B(letras[V1]); 
0EB4:  CLRF   03
0EB6:  MOVF   5B,W
0EB8:  ADDLW  23
0EBA:  MOVWF  FE9
0EBC:  MOVLW  00
0EBE:  ADDWFC 03,W
0EC0:  MOVWF  FEA
0EC2:  MOVFF  FEF,5D
0EC6:  CLRF   F93
0EC8:  MOVFF  5D,F8A
....................       output_HIGH(PIN_C2); 
0ECC:  BCF    F94.2
0ECE:  BSF    F8B.2
....................       delay_ms(10); 
0ED0:  MOVLW  0A
0ED2:  MOVWF  5F
0ED4:  CALL   01D6
....................       output_LOW(PIN_C1); 
0ED8:  BCF    F94.1
0EDA:  BCF    F8B.1
....................       output_LOW(PIN_C2); 
0EDC:  BCF    F94.2
0EDE:  BCF    F8B.2
....................        
....................       output_B(letras[V2]); 
0EE0:  CLRF   03
0EE2:  MOVF   5C,W
0EE4:  ADDLW  23
0EE6:  MOVWF  FE9
0EE8:  MOVLW  00
0EEA:  ADDWFC 03,W
0EEC:  MOVWF  FEA
0EEE:  MOVFF  FEF,5D
0EF2:  CLRF   F93
0EF4:  MOVFF  5D,F8A
....................       output_HIGH(PIN_C1); 
0EF8:  BCF    F94.1
0EFA:  BSF    F8B.1
....................       delay_ms(10); 
0EFC:  MOVLW  0A
0EFE:  MOVWF  5F
0F00:  CALL   01D6
....................       output_LOW(PIN_C1); 
0F04:  BCF    F94.1
0F06:  BCF    F8B.1
....................       output_LOW(PIN_C2); 
0F08:  BCF    F94.2
0F0A:  BCF    F8B.2
....................        
....................        
....................        
....................        
....................    } 
0F0C:  RETURN 0
....................     
....................  
.................... ///////////////////////////////PAQUETES///////////////////////////////////////// 
.................... //CONFIGURACION DEL ARREGLO(Tcomp,Tvent,Tdesc,Fdesc(horas),t_aire,t_refrig,Delta_t) 
.................... SIGNED PAQUETE_1[]={3,5,20,6,-15,-2,2,3}; //congelado fuente 
.................... SIGNED PAQUETE_2[]={3,5,10,8,-5,0,2,3}; //congelacion debil 
.................... INT VAR_PAQUETES=0; 
.................... VOID PROGRAMAR_PAQUETES(); 
.................... VOID PROGRAMAR_TERMISTOR(); 
.................... VOID PROGRAMAR(INT PALABRA); 
.................... INT i; 
.................... //////////////////////////////////////////////////////////////////////////////// 
.................... //VARIABLES DE CONTROL 
.................... SIGNED SET_POINT[]={1,1,2,1,-15,-10,2,3}; 
.................... BOOLEAN BAN_1=0; 
.................... BOOLEAN BAN_2=0; 
.................... BOOLEAN BAN_3=0; 
.................... BOOLEAN BAN_C=0; 
.................... INT ERROR=0; 
.................... //////////////////////////////////////////////////////////////////////////////// 
.................... INT progra=0; 
.................... INT select=0; 
.................... VOID PROGRAMAR (); 
.................... INT MODIFIC (INT X); 
.................... ///////////////VARIABLES PARA TIEMPO//////////////////////////////////////////// 
....................  
.................... INT SEGUNDOS=0; 
.................... INT SEGUNDOS_A=0; 
.................... INT SEGUNDOS_T=0; 
.................... INT MINUTOS=0; 
.................... INT HORAS=0; 
.................... INT HORAS_2=0; 
.................... INT TICK=0; 
....................  
.................... /////////////////PROTOTIPO DE FUNCIONES GENERALES ////////////////////////////// 
....................  
.................... VOID RELOJ(); 
.................... VOID MUESTRA(); 
.................... VOID COMPARADOR(); 
.................... VOID RESET_PORT (); 
.................... VOID ACONDICIONAR(FLOAT X); 
.................... VOID CONFIGURACION(); 
.................... /////////////////VARIABLES PARA LEER TEMPERATURA//////////////////////////////// 
.................... BOOLEAN T1=false; 
.................... BOOLEAN T2=false;  
.................... VOID LEER_TEMPERATURA(); 
.................... FLOAT CONVER_TEMPERATURA(FLOAT X); 
.................... SIGNED K1,K2; 
.................... FLOAT SET_TERMIS=4700; 
.................... INT TERMISTOR=0; 
.................... ////////////////VARIABLES PARA LEER VOLTAJE///////////////////////////////////// 
....................  
.................... ////////////////PROTECCION////////////////////////////////////////////////////// 
....................  
....................  
.................... #int_TIMER1 
.................... void  TIMER1_isr(void)  
.................... { 
....................       set_timer1 (0xBDC); 
*
00AE:  MOVLW  0B
00B0:  MOVWF  FCF
00B2:  MOVLW  DC
00B4:  MOVWF  FCE
....................       TICK++; 
00B6:  INCF   51,F
....................       //output_TOGGLE(COMPRESOR); 
....................       IF (TICK == 2) 
00B8:  MOVF   51,W
00BA:  SUBLW  02
00BC:  BNZ   00C6
....................       { 
....................          SEGUNDOS++; 
00BE:  INCF   4B,F
....................          SEGUNDOS_A++; 
00C0:  INCF   4C,F
....................          SEGUNDOS_T++; 
00C2:  INCF   4D,F
....................          TICK = 0; 
00C4:  CLRF   51
....................       } 
....................       ///TIEMPO PARA MEDIR TEMPERATURA 
....................       IF(SEGUNDOS_T==3){ 
00C6:  MOVF   4D,W
00C8:  SUBLW  03
00CA:  BNZ   00D0
....................       T1=TRUE; 
00CC:  BSF    47.4
....................       T2=FAlSE; 
00CE:  BCF    47.5
....................       } 
....................       IF(SEGUNDOS_T==6){ 
00D0:  MOVF   4D,W
00D2:  SUBLW  06
00D4:  BNZ   00DC
....................       T2=TRUE; 
00D6:  BSF    47.5
....................       T1=FALSE; 
00D8:  BCF    47.4
....................       SEGUNDOS_T=0; 
00DA:  CLRF   4D
....................       }     
.................... } 
....................  
.................... //////////////////////////////////////////////////////////////////////////////// 
00DC:  BCF    F9E.0
00DE:  GOTO   0060
.................... VOID CONFIGURACION(){ 
....................     
....................    setup_adc_ports( AN0_TO_AN1 );  
00E2:  MOVF   FC1,W
00E4:  ANDLW  C0
00E6:  IORLW  0D
00E8:  MOVWF  FC1
....................    setup_adc (ADC_CLOCK_DIV_32); 
00EA:  MOVF   FC0,W
00EC:  ANDLW  C0
00EE:  IORLW  02
00F0:  MOVWF  FC0
00F2:  BSF    FC0.7
00F4:  BSF    FC2.0
....................    setup_timer_1(T1_INTERNAL|T1_DIV_BY_8);//500 ms overflow 
00F6:  MOVLW  B5
00F8:  MOVWF  FCD
....................    enable_interrupts(INT_TIMER1); 
00FA:  BSF    F9D.0
....................    enable_interrupts(GLOBAL); 
00FC:  MOVLW  C0
00FE:  IORWF  FF2,F
....................    OUTPUT_C(0x00); 
0100:  CLRF   F94
0102:  CLRF   F8B
....................     
.................... ///cargo los valores almacenados en la eeprom    
....................     FOR (i = 0; i < 7; i++) 
0104:  CLRF   3E
0106:  MOVF   3E,W
0108:  SUBLW  06
010A:  BNC   0174
....................       { 
....................           SET_POINT[i] = read_eeprom (i);//DEBE SER PROGRAMADO ANTES DE INSTALARSE DE LO CONTRARIO DARA ERROR EN LOSEQUIPOS 
010C:  CLRF   03
010E:  MOVF   3E,W
0110:  ADDLW  3F
0112:  MOVWF  FE9
0114:  MOVLW  00
0116:  ADDWFC 03,W
0118:  MOVWF  FEA
011A:  MOVFF  FF2,5B
011E:  BCF    FF2.7
0120:  MOVFF  3E,FA9
0124:  BCF    FA6.6
0126:  BCF    FA6.7
0128:  BSF    FA6.0
012A:  MOVF   FA8,W
012C:  BTFSC  5B.7
012E:  BSF    FF2.7
0130:  MOVWF  FEF
....................           write_eeprom(i,SET_POINT[i]); 
0132:  CLRF   03
0134:  MOVF   3E,W
0136:  ADDLW  3F
0138:  MOVWF  FE9
013A:  MOVLW  00
013C:  ADDWFC 03,W
013E:  MOVWF  FEA
0140:  MOVFF  FEF,59
0144:  MOVF   FF2,W
0146:  MOVWF  00
0148:  BCF    FF2.7
014A:  MOVFF  3E,FA9
014E:  MOVFF  59,FA8
0152:  BCF    FA6.6
0154:  BCF    FA6.7
0156:  BSF    FA6.2
0158:  MOVLB  F
015A:  MOVLW  55
015C:  MOVWF  FA7
015E:  MOVLW  AA
0160:  MOVWF  FA7
0162:  BSF    FA6.1
0164:  BTFSC  FA6.1
0166:  BRA    0164
0168:  BCF    FA6.2
016A:  MOVF   00,W
016C:  IORWF  FF2,F
....................        } 
016E:  INCF   3E,F
0170:  MOVLB  0
0172:  BRA    0106
....................         
....................          IF( read_eeprom (10)==1) 
0174:  MOVFF  FF2,59
0178:  BCF    FF2.7
017A:  MOVLW  0A
017C:  MOVWF  FA9
017E:  BCF    FA6.6
0180:  BCF    FA6.7
0182:  BSF    FA6.0
0184:  MOVF   FA8,W
0186:  BTFSC  59.7
0188:  BSF    FF2.7
018A:  SUBLW  01
018C:  BNZ   019E
....................             SET_TERMIS=10000; 
018E:  CLRF   57
0190:  MOVLW  40
0192:  MOVWF  56
0194:  MOVLW  1C
0196:  MOVWF  55
0198:  MOVLW  8C
019A:  MOVWF  54
....................             ELSE 
019C:  BRA    01AC
....................             SET_TERMIS=4700;      
019E:  CLRF   57
01A0:  MOVLW  E0
01A2:  MOVWF  56
01A4:  MOVLW  12
01A6:  MOVWF  55
01A8:  MOVLW  8B
01AA:  MOVWF  54
.................... } 
01AC:  GOTO   16B6 (RETURN)
....................  
.................... void main() 
.................... { 
*
15C2:  CLRF   FF8
15C4:  BCF    FD0.7
15C6:  BSF    07.7
15C8:  CLRF   FEA
15CA:  CLRF   FE9
15CC:  CLRF   3D
15CE:  BCF    47.0
15D0:  BCF    47.1
15D2:  BCF    47.2
15D4:  BCF    47.3
15D6:  CLRF   48
15D8:  CLRF   49
15DA:  CLRF   4A
15DC:  CLRF   4B
15DE:  CLRF   4C
15E0:  CLRF   4D
15E2:  CLRF   4E
15E4:  CLRF   4F
15E6:  CLRF   50
15E8:  CLRF   51
15EA:  BCF    47.4
15EC:  BCF    47.5
15EE:  CLRF   57
15F0:  MOVLW  E0
15F2:  MOVWF  56
15F4:  MOVLW  12
15F6:  MOVWF  55
15F8:  MOVLW  8B
15FA:  MOVWF  54
15FC:  CLRF   58
15FE:  MOVF   FC1,W
1600:  ANDLW  C0
1602:  IORLW  0F
1604:  MOVWF  FC1
1606:  MOVLW  07
1608:  MOVWF  FB4
160A:  MOVLW  BF
160C:  MOVWF  19
160E:  MOVLW  86
1610:  MOVWF  1A
1612:  MOVLW  DB
1614:  MOVWF  1B
1616:  MOVLW  CF
1618:  MOVWF  1C
161A:  MOVLW  E6
161C:  MOVWF  1D
161E:  MOVLW  ED
1620:  MOVWF  1E
1622:  MOVLW  FD
1624:  MOVWF  1F
1626:  MOVLW  87
1628:  MOVWF  20
162A:  SETF   21
162C:  MOVLW  E7
162E:  MOVWF  22
1630:  MOVLW  F8
1632:  MOVWF  23
1634:  MOVLW  F7
1636:  MOVWF  24
1638:  MOVLW  B9
163A:  MOVWF  25
163C:  MOVLW  BE
163E:  MOVWF  26
1640:  MOVLW  DE
1642:  MOVWF  27
1644:  MOVLW  D0
1646:  MOVWF  28
1648:  MOVLW  B1
164A:  MOVWF  29
164C:  MOVLW  F1
164E:  MOVWF  2A
1650:  MOVLW  F3
1652:  MOVWF  2B
1654:  MOVLW  FC
1656:  MOVWF  2C
1658:  MOVLW  03
165A:  MOVWF  2D
165C:  MOVLW  05
165E:  MOVWF  2E
1660:  MOVLW  14
1662:  MOVWF  2F
1664:  MOVLW  06
1666:  MOVWF  30
1668:  MOVLW  F1
166A:  MOVWF  31
166C:  MOVLW  FE
166E:  MOVWF  32
1670:  MOVLW  02
1672:  MOVWF  33
1674:  MOVLW  03
1676:  MOVWF  34
1678:  MOVWF  35
167A:  MOVLW  05
167C:  MOVWF  36
167E:  MOVLW  0A
1680:  MOVWF  37
1682:  MOVLW  08
1684:  MOVWF  38
1686:  MOVLW  FB
1688:  MOVWF  39
168A:  CLRF   3A
168C:  MOVLW  02
168E:  MOVWF  3B
1690:  MOVLW  03
1692:  MOVWF  3C
1694:  MOVLW  01
1696:  MOVWF  3F
1698:  MOVWF  40
169A:  MOVLW  02
169C:  MOVWF  41
169E:  MOVLW  01
16A0:  MOVWF  42
16A2:  MOVLW  F1
16A4:  MOVWF  43
16A6:  MOVLW  F6
16A8:  MOVWF  44
16AA:  MOVLW  02
16AC:  MOVWF  45
16AE:  MOVLW  03
16B0:  MOVWF  46
....................   CONFIGURACION(); 
16B2:  GOTO   00E2
....................     
....................    while(TRUE) 
....................    { 
....................    RELOJ(); 
16B6:  GOTO   01B0
....................    LEER_TEMPERATURA();//ojo se puede poner en el timer  
16BA:  GOTO   0D9C
....................    PROGRAMAR_TERMISTOR(); 
16BE:  BRA    0F0E
....................    PROGRAMAR_PAQUETES(); 
16C0:  BRA    0FE4
....................    PROGRAMAR(); 
16C2:  BRA    13C0
....................    COMPARADOR();//metodo q chequela las condiciones 
16C4:  BRA    1490
....................     
....................   IF (progra == 0&&select == 0&&VAR_PAQUETES == 0&&TERMISTOR==0){ 
16C6:  MOVF   49,F
16C8:  BNZ   16D8
16CA:  MOVF   4A,F
16CC:  BNZ   16D8
16CE:  MOVF   3D,F
16D0:  BNZ   16D8
16D2:  MOVF   58,F
16D4:  BNZ   16D8
....................        MUESTRA(); 
16D6:  BRA    1570
....................        
....................       } 
....................     } 
16D8:  BRA    16B6
....................   } 
....................  
.................... //////////////////////////////////////////////////////////////////////////////// 
....................  
....................  VOID RELOJ() 
....................    { 
16DA:  SLEEP 
....................        
....................    IF (SEGUNDOS==60) 
*
01B0:  MOVF   4B,W
01B2:  SUBLW  3C
01B4:  BNZ   01BC
....................      { 
....................          MINUTOS++; 
01B6:  INCF   4E,F
....................          SEGUNDOS=0; 
01B8:  CLRF   4B
....................         }ELSE IF (MINUTOS==60) 
01BA:  BRA    01D2
01BC:  MOVF   4E,W
01BE:  SUBLW  3C
01C0:  BNZ   01CA
....................     { 
....................          HORAS++; 
01C2:  INCF   4F,F
....................          HORAS_2++; 
01C4:  INCF   50,F
....................          MINUTOS = 0; 
01C6:  CLRF   4E
....................         }ELSE IF (HORAS == 24) 
01C8:  BRA    01D2
01CA:  MOVF   4F,W
01CC:  SUBLW  18
01CE:  BNZ   01D2
....................     { 
....................    HORAS = 0; 
01D0:  CLRF   4F
....................         } 
....................    } 
01D2:  GOTO   16BA (RETURN)
....................   
.................... //////////////////////////////////////////////////////////////////////////////// 
....................  
.................... VOID PROGRAMAR_TERMISTOR(){ 
....................  
....................      
....................     IF (INPUT(BOTON_PROGRA ) == 0&&INPUT(BOTON_MENOS)==0){ 
*
0F0E:  BSF    F92.2
0F10:  BTFSC  F80.2
0F12:  BRA    0F2E
0F14:  BSF    F92.5
0F16:  BTFSC  F80.5
0F18:  BRA    0F2E
....................      
....................       DELAY_MS (300); 
0F1A:  MOVLW  02
0F1C:  MOVWF  59
0F1E:  MOVLW  96
0F20:  MOVWF  5F
0F22:  CALL   01D6
0F26:  DECFSZ 59,F
0F28:  BRA    0F1E
....................       TERMISTOR++; 
0F2A:  INCF   58,F
....................       SEGUNDOS_A = 0; 
0F2C:  CLRF   4C
....................    } 
....................     SWITCH (TERMISTOR) 
....................    { 
0F2E:  MOVF   58,W
0F30:  XORLW  01
0F32:  BZ    0F3E
0F34:  XORLW  03
0F36:  BZ    0F8E
0F38:  XORLW  01
0F3A:  BZ    0FDE
0F3C:  BRA    0FE0
....................       CASE 1: 
....................           
....................          SET_TERMIS = 10000; 
0F3E:  CLRF   57
0F40:  MOVLW  40
0F42:  MOVWF  56
0F44:  MOVLW  1C
0F46:  MOVWF  55
0F48:  MOVLW  8C
0F4A:  MOVWF  54
....................          write_eeprom(10,1); 
0F4C:  MOVF   FF2,W
0F4E:  MOVWF  00
0F50:  BCF    FF2.7
0F52:  MOVLW  0A
0F54:  MOVWF  FA9
0F56:  MOVLW  01
0F58:  MOVWF  FA8
0F5A:  BCF    FA6.6
0F5C:  BCF    FA6.7
0F5E:  BSF    FA6.2
0F60:  MOVLB  F
0F62:  MOVLW  55
0F64:  MOVWF  FA7
0F66:  MOVLW  AA
0F68:  MOVWF  FA7
0F6A:  BSF    FA6.1
0F6C:  BTFSC  FA6.1
0F6E:  BRA    0F6C
0F70:  BCF    FA6.2
0F72:  MOVF   00,W
0F74:  IORWF  FF2,F
....................          IF (SEGUNDOS_A < 3) 
0F76:  MOVF   4C,W
0F78:  SUBLW  02
0F7A:  BNC   0F88
....................          { 
....................          letra (21) ; 
0F7C:  MOVLW  15
0F7E:  MOVWF  5A
0F80:  MOVLB  0
0F82:  RCALL  0E98
....................             }ELSE{ 
0F84:  BRA    0F8C
0F86:  MOVLB  F
....................          TERMISTOR = 0; 
0F88:  CLRF   58
0F8A:  MOVLB  0
....................          } 
....................       BREAK; 
0F8C:  BRA    0FE0
....................        CASE 2: 
....................         
....................          SET_TERMIS = 4700; 
0F8E:  CLRF   57
0F90:  MOVLW  E0
0F92:  MOVWF  56
0F94:  MOVLW  12
0F96:  MOVWF  55
0F98:  MOVLW  8B
0F9A:  MOVWF  54
....................          write_eeprom(10,2); 
0F9C:  MOVF   FF2,W
0F9E:  MOVWF  00
0FA0:  BCF    FF2.7
0FA2:  MOVLW  0A
0FA4:  MOVWF  FA9
0FA6:  MOVLW  02
0FA8:  MOVWF  FA8
0FAA:  BCF    FA6.6
0FAC:  BCF    FA6.7
0FAE:  BSF    FA6.2
0FB0:  MOVLB  F
0FB2:  MOVLW  55
0FB4:  MOVWF  FA7
0FB6:  MOVLW  AA
0FB8:  MOVWF  FA7
0FBA:  BSF    FA6.1
0FBC:  BTFSC  FA6.1
0FBE:  BRA    0FBC
0FC0:  BCF    FA6.2
0FC2:  MOVF   00,W
0FC4:  IORWF  FF2,F
....................        
....................           
....................          IF (SEGUNDOS_A < 3) 
0FC6:  MOVF   4C,W
0FC8:  SUBLW  02
0FCA:  BNC   0FD8
....................          { 
....................          letra (29) ; 
0FCC:  MOVLW  1D
0FCE:  MOVWF  5A
0FD0:  MOVLB  0
0FD2:  RCALL  0E98
....................             }ELSE{ 
0FD4:  BRA    0FDC
0FD6:  MOVLB  F
....................          TERMISTOR = 0; 
0FD8:  CLRF   58
0FDA:  MOVLB  0
....................          } 
....................       BREAK; 
0FDC:  BRA    0FE0
....................       CASE 3: 
....................         TERMISTOR = 0; 
0FDE:  CLRF   58
....................       BREAK; 
....................     
....................     
....................    } 
.................... } 
0FE0:  GOTO   16C0 (RETURN)
....................  
.................... VOID PROGRAMAR_PAQUETES() 
.................... { 
....................     
....................    IF (INPUT(BOTON_PROGRA ) == 0&&INPUT (BOTON_MAS) == 1&&INPUT(BOTON_SELECT)==0) 
0FE4:  BSF    F92.2
0FE6:  BTFSC  F80.2
0FE8:  BRA    100A
0FEA:  BSF    F92.4
0FEC:  BTFSS  F80.4
0FEE:  BRA    100A
0FF0:  BSF    F92.3
0FF2:  BTFSC  F80.3
0FF4:  BRA    100A
....................    { 
....................       DELAY_MS (300) ; 
0FF6:  MOVLW  02
0FF8:  MOVWF  59
0FFA:  MOVLW  96
0FFC:  MOVWF  5F
0FFE:  CALL   01D6
1002:  DECFSZ 59,F
1004:  BRA    0FFA
....................       VAR_PAQUETES++; 
1006:  INCF   3D,F
....................       SEGUNDOS_A = 0; 
1008:  CLRF   4C
....................    } 
....................    SWITCH (VAR_PAQUETES) 
....................    { 
100A:  MOVF   3D,W
100C:  XORLW  01
100E:  BZ    101C
1010:  XORLW  03
1012:  BZ    10A6
1014:  XORLW  01
1016:  BTFSC  FD8.2
1018:  BRA    1130
101A:  BRA    1132
....................       CASE 1: 
....................          FOR (i = 0; i < 7; i++) 
101C:  CLRF   3E
101E:  MOVF   3E,W
1020:  SUBLW  06
1022:  BNC   1094
....................          { 
....................          SET_POINT[i] = PAQUETE_1[i]; 
1024:  CLRF   03
1026:  MOVF   3E,W
1028:  ADDLW  3F
102A:  MOVWF  01
102C:  MOVLW  00
102E:  ADDWFC 03,F
1030:  MOVFF  03,5A
1034:  CLRF   03
1036:  MOVF   3E,W
1038:  ADDLW  2D
103A:  MOVWF  FE9
103C:  MOVLW  00
103E:  ADDWFC 03,W
1040:  MOVWF  FEA
1042:  MOVFF  FEF,5B
1046:  MOVFF  5A,FEA
104A:  MOVFF  01,FE9
104E:  MOVFF  5B,FEF
....................          write_eeprom(i,SET_POINT[i]); 
1052:  CLRF   03
1054:  MOVF   3E,W
1056:  ADDLW  3F
1058:  MOVWF  FE9
105A:  MOVLW  00
105C:  ADDWFC 03,W
105E:  MOVWF  FEA
1060:  MOVFF  FEF,59
1064:  MOVF   FF2,W
1066:  MOVWF  00
1068:  BCF    FF2.7
106A:  MOVFF  3E,FA9
106E:  MOVFF  59,FA8
1072:  BCF    FA6.6
1074:  BCF    FA6.7
1076:  BSF    FA6.2
1078:  MOVLB  F
107A:  MOVLW  55
107C:  MOVWF  FA7
107E:  MOVLW  AA
1080:  MOVWF  FA7
1082:  BSF    FA6.1
1084:  BTFSC  FA6.1
1086:  BRA    1084
1088:  BCF    FA6.2
108A:  MOVF   00,W
108C:  IORWF  FF2,F
....................        
....................          } 
108E:  INCF   3E,F
1090:  MOVLB  0
1092:  BRA    101E
....................          IF (SEGUNDOS_A < 3) 
1094:  MOVF   4C,W
1096:  SUBLW  02
1098:  BNC   10A2
....................          { 
....................          letra (81) ; 
109A:  MOVLW  51
109C:  MOVWF  5A
109E:  RCALL  0E98
....................             }ELSE{ 
10A0:  BRA    10A4
....................          VAR_PAQUETES = 0; 
10A2:  CLRF   3D
....................          } 
....................       BREAK; 
10A4:  BRA    1132
....................        
....................       CASE 2: 
....................          FOR (i = 0; i < 7; i++) 
10A6:  CLRF   3E
10A8:  MOVF   3E,W
10AA:  SUBLW  06
10AC:  BNC   111E
....................          { 
....................          SET_POINT[i] = PAQUETE_2[i]; 
10AE:  CLRF   03
10B0:  MOVF   3E,W
10B2:  ADDLW  3F
10B4:  MOVWF  01
10B6:  MOVLW  00
10B8:  ADDWFC 03,F
10BA:  MOVFF  03,5A
10BE:  CLRF   03
10C0:  MOVF   3E,W
10C2:  ADDLW  35
10C4:  MOVWF  FE9
10C6:  MOVLW  00
10C8:  ADDWFC 03,W
10CA:  MOVWF  FEA
10CC:  MOVFF  FEF,5B
10D0:  MOVFF  5A,FEA
10D4:  MOVFF  01,FE9
10D8:  MOVFF  5B,FEF
....................          write_eeprom(i,SET_POINT[i]); 
10DC:  CLRF   03
10DE:  MOVF   3E,W
10E0:  ADDLW  3F
10E2:  MOVWF  FE9
10E4:  MOVLW  00
10E6:  ADDWFC 03,W
10E8:  MOVWF  FEA
10EA:  MOVFF  FEF,59
10EE:  MOVF   FF2,W
10F0:  MOVWF  00
10F2:  BCF    FF2.7
10F4:  MOVFF  3E,FA9
10F8:  MOVFF  59,FA8
10FC:  BCF    FA6.6
10FE:  BCF    FA6.7
1100:  BSF    FA6.2
1102:  MOVLB  F
1104:  MOVLW  55
1106:  MOVWF  FA7
1108:  MOVLW  AA
110A:  MOVWF  FA7
110C:  BSF    FA6.1
110E:  BTFSC  FA6.1
1110:  BRA    110E
1112:  BCF    FA6.2
1114:  MOVF   00,W
1116:  IORWF  FF2,F
....................          } 
1118:  INCF   3E,F
111A:  MOVLB  0
111C:  BRA    10A8
....................          IF (SEGUNDOS_A < 3) 
111E:  MOVF   4C,W
1120:  SUBLW  02
1122:  BNC   112C
....................          { 
....................          letra (89) ; 
1124:  MOVLW  59
1126:  MOVWF  5A
1128:  RCALL  0E98
....................             }ELSE{ 
112A:  BRA    112E
....................          VAR_PAQUETES = 0; 
112C:  CLRF   3D
....................          } 
....................       BREAK; 
112E:  BRA    1132
....................        
....................       CASE 3: 
....................          VAR_PAQUETES = 0; 
1130:  CLRF   3D
....................       break; 
....................    } 
....................  
.................... } 
1132:  GOTO   16C2 (RETURN)
....................  /////////////////////////////////////////////////////////////////////////////// 
....................   
....................    VOID PROGRAMAR() //PROGRAMACION PERSONALIZADA 
....................     { 
....................        IF (INPUT (BOTON_PROGRA) == 0&&INPUT (BOTON_MAS) == 0)//para entrar en modo programacion manual 
*
13C0:  BSF    F92.2
13C2:  BTFSC  F80.2
13C4:  BRA    13DA
13C6:  BSF    F92.4
13C8:  BTFSC  F80.4
13CA:  BRA    13DA
....................        { 
....................           DELAY_MS (200) ; 
13CC:  MOVLW  C8
13CE:  MOVWF  5F
13D0:  CALL   01D6
....................           progra = 1; //activo la programacion 
13D4:  MOVLW  01
13D6:  MOVWF  49
....................           SEGUNDOS_A = 0; 
13D8:  CLRF   4C
....................        } 
....................        IF (progra == 1&&select == 0) 
13DA:  DECFSZ 49,W
13DC:  BRA    13E8
13DE:  MOVF   4A,F
13E0:  BNZ   13E8
....................        { 
....................           letra (85) ; 
13E2:  MOVLW  55
13E4:  MOVWF  5A
13E6:  RCALL  0E98
....................        } 
....................             IF (INPUT (BOTON_SELECT) == 0&&progra == 1) 
13E8:  BSF    F92.3
13EA:  BTFSC  F80.3
13EC:  BRA    1406
13EE:  DECFSZ 49,W
13F0:  BRA    1406
....................                { 
....................                DELAY_MS (400) ; 
13F2:  MOVLW  02
13F4:  MOVWF  59
13F6:  MOVLW  C8
13F8:  MOVWF  5F
13FA:  CALL   01D6
13FE:  DECFSZ 59,F
1400:  BRA    13F6
....................                select++; 
1402:  INCF   4A,F
....................                SEGUNDOS_A = 0; 
1404:  CLRF   4C
....................                } 
....................  
....................       SWITCH (select) 
....................        { 
1406:  MOVLW  01
1408:  SUBWF  4A,W
140A:  ADDLW  F7
140C:  BC    1458
140E:  ADDLW  09
1410:  GOTO   145C
....................           CASE 1: ////TIEMPO DEL COMPRESOR 
....................             PROGRAMAR(62); 
1414:  MOVLW  3E
1416:  MOVWF  59
1418:  RCALL  1310
....................           BREAK; 
141A:  BRA    1458
....................            
....................           CASE 2:////TIEMPO DEL VENTILADOR 
....................             PROGRAMAR(63);  
141C:  MOVLW  3F
141E:  MOVWF  59
1420:  RCALL  1310
....................           BREAK; 
1422:  BRA    1458
....................            
....................           CASE 3:////TIEMPO DE DESCARCHE 
....................             PROGRAMAR(64);   
1424:  MOVLW  40
1426:  MOVWF  59
1428:  RCALL  1310
....................           BREAK; 
142A:  BRA    1458
....................            
....................           CASE 4:////FRECUENCIA DE DESCARCHE 
....................             PROGRAMAR(74);  
142C:  MOVLW  4A
142E:  MOVWF  59
1430:  RCALL  1310
....................           BREAK; 
1432:  BRA    1458
....................          
....................           CASE 5:////TEMPERATURA SET POINT AIRE 
....................             PROGRAMAR(01);   
1434:  MOVLW  01
1436:  MOVWF  59
1438:  RCALL  1310
....................           BREAK; 
143A:  BRA    1458
....................            
....................           CASE 6:////TEMPERATURA SET POINT REFRIGERANTE 
....................             PROGRAMAR(05);   
143C:  MOVLW  05
143E:  MOVWF  59
1440:  RCALL  1310
....................           BREAK; 
1442:  BRA    1458
....................            
....................           CASE 7:////DELTA DE TEMPERATURA 
....................             PROGRAMAR(40);  
1444:  MOVLW  28
1446:  MOVWF  59
1448:  RCALL  1310
....................           BREAK; 
144A:  BRA    1458
....................            
....................           CASE 8:////parada del compresor 
....................             PROGRAMAR(83);  
144C:  MOVLW  53
144E:  MOVWF  59
1450:  RCALL  1310
....................           BREAK; 
1452:  BRA    1458
....................            
....................           CASE 9:/// FIN DE PROGRAMACION 
....................                select = 0; 
1454:  CLRF   4A
....................                progra = 0;//apago la programacion 
1456:  CLRF   49
....................           BREAK; 
....................        } 
....................    }//fin del modo de programacion 
1458:  GOTO   16C4 (RETURN)
....................   
....................  /////////////////////////////////////////////////////////////////////////////// 
....................   
....................   VOID LEER_TEMPERATURA(){ 
....................             FLOAT DATO; 
....................                if(T1){ 
*
0D9C:  BTFSS  47.4
0D9E:  BRA    0E04
....................                   set_adc_channel (0) ; 
0DA0:  MOVLW  00
0DA2:  MOVWF  01
0DA4:  MOVF   FC2,W
0DA6:  ANDLW  C3
0DA8:  IORWF  01,W
0DAA:  MOVWF  FC2
....................                      DELAY_MS(20); 
0DAC:  MOVLW  14
0DAE:  MOVWF  5F
0DB0:  CALL   01D6
....................                   DATO = read_adc () ; 
0DB4:  BSF    FC2.1
0DB6:  BTFSC  FC2.1
0DB8:  BRA    0DB6
0DBA:  MOVFF  FC4,03
0DBE:  MOVFF  FC3,5D
0DC2:  MOVFF  FC4,5E
0DC6:  CALL   01FE
0DCA:  MOVFF  03,5C
0DCE:  MOVFF  02,5B
0DD2:  MOVFF  01,5A
0DD6:  MOVFF  00,59
....................                      K1=CONVER_TEMPERATURA(DATO);//temperatura ambiente 
0DDA:  MOVFF  5C,60
0DDE:  MOVFF  5B,5F
0DE2:  MOVFF  5A,5E
0DE6:  MOVFF  59,5D
0DEA:  RCALL  0AEE
0DEC:  MOVFF  03,60
0DF0:  MOVFF  02,5F
0DF4:  MOVFF  01,5E
0DF8:  MOVFF  00,5D
0DFC:  RCALL  0D64
0DFE:  MOVFF  01,52
....................                      T1=FALSE; 
0E02:  BCF    47.4
....................                      } 
....................                if(T2){ 
0E04:  BTFSS  47.5
0E06:  BRA    0E6C
....................                   set_adc_channel (1) ; 
0E08:  MOVLW  04
0E0A:  MOVWF  01
0E0C:  MOVF   FC2,W
0E0E:  ANDLW  C3
0E10:  IORWF  01,W
0E12:  MOVWF  FC2
....................                      DELAY_MS(20); 
0E14:  MOVLW  14
0E16:  MOVWF  5F
0E18:  CALL   01D6
....................                   DATO = read_adc () ; 
0E1C:  BSF    FC2.1
0E1E:  BTFSC  FC2.1
0E20:  BRA    0E1E
0E22:  MOVFF  FC4,03
0E26:  MOVFF  FC3,5D
0E2A:  MOVFF  FC4,5E
0E2E:  CALL   01FE
0E32:  MOVFF  03,5C
0E36:  MOVFF  02,5B
0E3A:  MOVFF  01,5A
0E3E:  MOVFF  00,59
....................                      K2=CONVER_TEMPERATURA(DATO);//temperatura refrigerante 
0E42:  MOVFF  5C,60
0E46:  MOVFF  5B,5F
0E4A:  MOVFF  5A,5E
0E4E:  MOVFF  59,5D
0E52:  RCALL  0AEE
0E54:  MOVFF  03,60
0E58:  MOVFF  02,5F
0E5C:  MOVFF  01,5E
0E60:  MOVFF  00,5D
0E64:  RCALL  0D64
0E66:  MOVFF  01,53
....................                      T2=FALSE; 
0E6A:  BCF    47.5
....................                      } 
....................                } 
0E6C:  GOTO   16BE (RETURN)
....................     
....................   float CONVER_TEMPERATURA(float X){ 
*
0AEE:  CLRF   x70
0AF0:  MOVLW  80
0AF2:  MOVWF  x6F
0AF4:  MOVLW  54
0AF6:  MOVWF  x6E
0AF8:  MOVLW  8A
0AFA:  MOVWF  x6D
0AFC:  MOVFF  57,74
0B00:  MOVFF  56,73
0B04:  MOVFF  55,72
0B08:  MOVFF  54,71
0B0C:  CLRF   x78
0B0E:  MOVLW  40
0B10:  MOVWF  x77
0B12:  MOVLW  1C
0B14:  MOVWF  x76
0B16:  MOVLW  8D
0B18:  MOVWF  x75
....................       float Vt;//voltaje transformado 
....................       float Rt;//Resistencia del termistor 
....................       float T;//temperatura 
....................       FLOAT B=3400; //BETA DEL NTC real: B=3400 
....................       FLOAT Ro=SET_TERMIS;//RESISTENCIA A 25C 
....................       FLOAT Rs=20000; //RESISTENCIA DE LINEALIDAD 
....................        
....................          Vt=5*X/1024; //VOLTAJE DE ENTRADA 
0B1A:  CLRF   x95
0B1C:  CLRF   x94
0B1E:  MOVLW  20
0B20:  MOVWF  x93
0B22:  MOVLW  81
0B24:  MOVWF  x92
0B26:  MOVFF  60,99
0B2A:  MOVFF  5F,98
0B2E:  MOVFF  5E,97
0B32:  MOVFF  5D,96
0B36:  CALL   0234
0B3A:  MOVFF  00,79
0B3E:  MOVFF  01,7A
0B42:  MOVFF  02,7B
0B46:  MOVFF  03,7C
0B4A:  MOVFF  03,99
0B4E:  MOVFF  02,98
0B52:  MOVFF  01,97
0B56:  MOVFF  00,96
0B5A:  CLRF   x9D
0B5C:  CLRF   x9C
0B5E:  CLRF   x9B
0B60:  MOVLW  89
0B62:  MOVWF  x9A
0B64:  CALL   0326
0B68:  MOVFF  03,64
0B6C:  MOVFF  02,63
0B70:  MOVFF  01,62
0B74:  MOVFF  00,61
....................          Rt=(Vt*Rs)/(5-Vt);//RESISTENCIA A TEMPERATURA MEDIDA 
0B78:  MOVFF  64,95
0B7C:  MOVFF  63,94
0B80:  MOVFF  62,93
0B84:  MOVFF  61,92
0B88:  MOVFF  78,99
0B8C:  MOVFF  77,98
0B90:  MOVFF  76,97
0B94:  MOVFF  75,96
0B98:  CALL   0234
0B9C:  MOVFF  00,79
0BA0:  MOVFF  01,7A
0BA4:  MOVFF  02,7B
0BA8:  MOVFF  03,7C
0BAC:  BSF    FD8.1
0BAE:  CLRF   x99
0BB0:  CLRF   x98
0BB2:  MOVLW  20
0BB4:  MOVWF  x97
0BB6:  MOVLW  81
0BB8:  MOVWF  x96
0BBA:  MOVFF  64,9D
0BBE:  MOVFF  63,9C
0BC2:  MOVFF  62,9B
0BC6:  MOVFF  61,9A
0BCA:  RCALL  0480
0BCC:  MOVFF  7C,99
0BD0:  MOVFF  7B,98
0BD4:  MOVFF  7A,97
0BD8:  MOVFF  79,96
0BDC:  MOVFF  03,9D
0BE0:  MOVFF  02,9C
0BE4:  MOVFF  01,9B
0BE8:  MOVFF  00,9A
0BEC:  CALL   0326
0BF0:  MOVFF  03,68
0BF4:  MOVFF  02,67
0BF8:  MOVFF  01,66
0BFC:  MOVFF  00,65
....................          T=(1/((LOG(Rt/Ro)*(1/B))+(1/298.15)))-273.15;//TEMPERATURA MEDIDA 
0C00:  MOVFF  68,99
0C04:  MOVFF  67,98
0C08:  MOVFF  66,97
0C0C:  MOVFF  65,96
0C10:  MOVFF  74,9D
0C14:  MOVFF  73,9C
0C18:  MOVFF  72,9B
0C1C:  MOVFF  71,9A
0C20:  CALL   0326
0C24:  MOVFF  00,79
0C28:  MOVFF  01,7A
0C2C:  MOVFF  02,7B
0C30:  MOVFF  03,7C
0C34:  MOVFF  03,80
0C38:  MOVFF  02,7F
0C3C:  MOVFF  01,7E
0C40:  MOVFF  00,7D
0C44:  BRA    07AA
0C46:  MOVFF  00,79
0C4A:  MOVFF  01,7A
0C4E:  MOVFF  02,7B
0C52:  MOVFF  03,7C
0C56:  CLRF   x99
0C58:  CLRF   x98
0C5A:  CLRF   x97
0C5C:  MOVLW  7F
0C5E:  MOVWF  x96
0C60:  MOVFF  70,9D
0C64:  MOVFF  6F,9C
0C68:  MOVFF  6E,9B
0C6C:  MOVFF  6D,9A
0C70:  CALL   0326
0C74:  MOVFF  7C,95
0C78:  MOVFF  7B,94
0C7C:  MOVFF  7A,93
0C80:  MOVFF  79,92
0C84:  MOVFF  03,99
0C88:  MOVFF  02,98
0C8C:  MOVFF  01,97
0C90:  MOVFF  00,96
0C94:  CALL   0234
0C98:  MOVFF  00,79
0C9C:  MOVFF  01,7A
0CA0:  MOVFF  02,7B
0CA4:  MOVFF  03,7C
0CA8:  MOVFF  FEA,7E
0CAC:  MOVFF  FE9,7D
0CB0:  BCF    FD8.1
0CB2:  MOVFF  03,99
0CB6:  MOVFF  02,98
0CBA:  MOVFF  01,97
0CBE:  MOVFF  00,96
0CC2:  MOVLW  0F
0CC4:  MOVWF  x9D
0CC6:  MOVLW  CF
0CC8:  MOVWF  x9C
0CCA:  MOVLW  5B
0CCC:  MOVWF  x9B
0CCE:  MOVLW  76
0CD0:  MOVWF  x9A
0CD2:  CALL   0480
0CD6:  MOVFF  7E,FEA
0CDA:  MOVFF  7D,FE9
0CDE:  CLRF   x99
0CE0:  CLRF   x98
0CE2:  CLRF   x97
0CE4:  MOVLW  7F
0CE6:  MOVWF  x96
0CE8:  MOVFF  03,9D
0CEC:  MOVFF  02,9C
0CF0:  MOVFF  01,9B
0CF4:  MOVFF  00,9A
0CF8:  CALL   0326
0CFC:  MOVFF  00,79
0D00:  MOVFF  01,7A
0D04:  MOVFF  02,7B
0D08:  MOVFF  03,7C
0D0C:  MOVFF  FEA,80
0D10:  MOVFF  FE9,7F
0D14:  BSF    FD8.1
0D16:  MOVFF  03,99
0D1A:  MOVFF  02,98
0D1E:  MOVFF  01,97
0D22:  MOVFF  00,96
0D26:  MOVLW  33
0D28:  MOVWF  x9D
0D2A:  MOVLW  93
0D2C:  MOVWF  x9C
0D2E:  MOVLW  08
0D30:  MOVWF  x9B
0D32:  MOVLW  87
0D34:  MOVWF  x9A
0D36:  CALL   0480
0D3A:  MOVFF  80,FEA
0D3E:  MOVFF  7F,FE9
0D42:  MOVFF  03,6C
0D46:  MOVFF  02,6B
0D4A:  MOVFF  01,6A
0D4E:  MOVFF  00,69
....................       RETURN T;  
0D52:  MOVFF  69,00
0D56:  MOVFF  6A,01
0D5A:  MOVFF  6B,02
0D5E:  MOVFF  6C,03
....................    } 
0D62:  RETURN 0
....................  /////////////////////////////////////////////////////////////////////////////// 
....................  INT MODIFIC (INT X) 
....................     { 
....................         
....................        IF (INPUT (BOTON_MAS) == 0) 
*
1136:  BSF    F92.4
1138:  BTFSC  F80.4
113A:  BRA    1148
....................        { 
....................          DELAY_MS (200) ; 
113C:  MOVLW  C8
113E:  MOVWF  5F
1140:  CALL   01D6
....................           X++; 
1144:  INCF   5D,F
....................        }ELSE IF (INPUT (BOTON_MENOS) == 0) 
1146:  BRA    1158
1148:  BSF    F92.5
114A:  BTFSC  F80.5
114C:  BRA    1158
....................        { 
....................          DELAY_MS (200) ; 
114E:  MOVLW  C8
1150:  MOVWF  5F
1152:  CALL   01D6
....................           X--; 
1156:  DECF   5D,F
....................        } 
....................        RETURN X; 
1158:  MOVFF  5D,01
....................     } 
115C:  GOTO   1352 (RETURN)
.................... //////////////////////////////////////////////////////////////////////////////// 
....................  
.................... VOID MUESTRA(){ 
*
1570:  BCF    59.0
.................... //funcion que muestra las temperaturas del sistema de forma intercalada 
....................        
....................      BOOLEAN D=FALSE; 
....................       IF(SEGUNDOS_A==0&&D==FALSE){ 
1572:  MOVF   4C,F
1574:  BNZ   157E
1576:  BTFSC  59.0
1578:  BRA    157E
....................          SEGUNDOS_A=0; 
157A:  CLRF   4C
....................          D=TRUE; 
157C:  BSF    59.0
....................       } 
....................    SWITCH(SEGUNDOS_A){ 
157E:  MOVF   4C,W
1580:  BZ    1590
1582:  XORLW  02
1584:  BZ    1598
1586:  XORLW  06
1588:  BZ    15A0
158A:  XORLW  02
158C:  BZ    15BC
158E:  BRA    15BE
....................       CASE 0: 
....................           //letra (01); 
....................             VerDisplay(SET_POINT[4]); 
1590:  MOVFF  43,5B
1594:  RCALL  11F4
....................       BREAK; 
1596:  BRA    15BE
....................      CASE 2: 
....................          VerDisplay(K2); 
1598:  MOVFF  53,5B
159C:  RCALL  11F4
....................      BREAK; 
159E:  BRA    15BE
....................      CASE 4: 
....................            
....................         if(ERROR<=2&&ERROR>1){ 
15A0:  MOVF   48,W
15A2:  SUBLW  02
15A4:  BNC   15B6
15A6:  MOVF   48,W
15A8:  SUBLW  01
15AA:  BC    15B6
....................            ERROR++; 
15AC:  INCF   48,F
....................            letra (71) ; 
15AE:  MOVLW  47
15B0:  MOVWF  5A
15B2:  RCALL  0E98
....................         }else{ 
15B4:  BRA    15BA
....................            ERROR=0; 
15B6:  CLRF   48
....................             SEGUNDOS_A=0; 
15B8:  CLRF   4C
....................           } 
....................         
....................       BREAK; 
15BA:  BRA    15BE
....................       CASE 6://debo colocar 6 cuando termine de hacer las pruebas del tiempo 
....................           SEGUNDOS_A=0; 
15BC:  CLRF   4C
....................       BREAK; 
....................         } 
....................      } 
15BE:  GOTO   16D8 (RETURN)
....................       
.................... //////////////////////////////////////////////////////////////////////////////// 
....................     VOID RESET_PORT () //reseteo tiempos 
....................     { 
....................        SEGUNDOS = 0; 
*
1488:  CLRF   4B
....................        MINUTOS = 0; 
148A:  CLRF   4E
....................        HORAS = 0; 
148C:  CLRF   4F
....................     } 
148E:  RETURN 0
.................... //////////////////////////////////////////////////////////////////////////////// 
....................  
.................... VOID PROGRAMAR(INT PALABRA){ 
....................  
....................  
....................   IF (SEGUNDOS_A <= 2) 
*
1310:  MOVF   4C,W
1312:  SUBLW  02
1314:  BNC   131C
....................                { 
....................              letra (PALABRA) ; 
1316:  MOVFF  59,5A
131A:  RCALL  0E98
....................                } 
....................                IF (SEGUNDOS_A > 2) 
131C:  MOVF   4C,W
131E:  SUBLW  02
1320:  BC    13BE
....................                { 
....................                   SET_POINT[select - 1] = MODIFIC(SET_POINT[select - 1]) ; 
1322:  MOVLW  01
1324:  SUBWF  4A,W
1326:  CLRF   03
1328:  ADDLW  3F
132A:  MOVWF  01
132C:  MOVLW  00
132E:  ADDWFC 03,F
1330:  MOVFF  01,5A
1334:  MOVFF  03,5B
1338:  MOVLW  01
133A:  SUBWF  4A,W
133C:  CLRF   03
133E:  ADDLW  3F
1340:  MOVWF  FE9
1342:  MOVLW  00
1344:  ADDWFC 03,W
1346:  MOVWF  FEA
1348:  MOVFF  FEF,5C
134C:  MOVFF  5C,5D
1350:  BRA    1136
1352:  MOVFF  5B,FEA
1356:  MOVFF  5A,FE9
135A:  MOVFF  01,FEF
....................                   write_eeprom(select - 1,SET_POINT[select - 1]);//escribo en la eepron de una vez 
135E:  MOVLW  01
1360:  SUBWF  4A,W
1362:  MOVWF  5A
1364:  MOVLW  01
1366:  SUBWF  4A,W
1368:  CLRF   03
136A:  ADDLW  3F
136C:  MOVWF  FE9
136E:  MOVLW  00
1370:  ADDWFC 03,W
1372:  MOVWF  FEA
1374:  MOVFF  FEF,5B
1378:  MOVF   FF2,W
137A:  MOVWF  00
137C:  BCF    FF2.7
137E:  MOVFF  5A,FA9
1382:  MOVFF  5B,FA8
1386:  BCF    FA6.6
1388:  BCF    FA6.7
138A:  BSF    FA6.2
138C:  MOVLB  F
138E:  MOVLW  55
1390:  MOVWF  FA7
1392:  MOVLW  AA
1394:  MOVWF  FA7
1396:  BSF    FA6.1
1398:  BTFSC  FA6.1
139A:  BRA    1398
139C:  BCF    FA6.2
139E:  MOVF   00,W
13A0:  IORWF  FF2,F
....................                   VerDisplay (SET_POINT[select - 1]);//muestro el valor 
13A2:  MOVLW  01
13A4:  SUBWF  4A,W
13A6:  CLRF   03
13A8:  ADDLW  3F
13AA:  MOVWF  FE9
13AC:  MOVLW  00
13AE:  ADDWFC 03,W
13B0:  MOVWF  FEA
13B2:  MOVFF  FEF,5A
13B6:  MOVFF  5A,5B
13BA:  MOVLB  0
13BC:  RCALL  11F4
....................                } 
....................             } 
13BE:  RETURN 0
....................              
.................... //////////////////////////////////////////////////////////////////////////////// 
....................    VOID COMPARADOR() //compara todos los estados y tiempos 
....................    {      
.................... //////////////// inicio de proteccion  /////////////////////////////////////////      
....................       IF((MINUTOS >= SET_POINT[0] && BAN_1 == 0)|| BAN_C==1) 
*
1490:  BTFSC  3F.7
1492:  BRA    149A
1494:  MOVF   3F,W
1496:  SUBWF  4E,W
1498:  BNC   149E
149A:  BTFSS  47.0
149C:  BRA    14A2
149E:  BTFSS  47.3
14A0:  BRA    14AC
....................        {  
....................           OUTPUT_HIGH (COMPRESOR); //prendo compresor 
14A2:  BCF    F94.5
14A4:  BSF    F8B.5
....................           RESET_PORT ();//reseteo tiempo 
14A6:  RCALL  1488
....................           BAN_1 = 1; 
14A8:  BSF    47.0
....................           BAN_C = 0; 
14AA:  BCF    47.3
....................            
....................        }  
....................       IF(MINUTOS >= SET_POINT[1]&&BAN_1 == 1) 
14AC:  BTFSC  40.7
14AE:  BRA    14B6
14B0:  MOVF   40,W
14B2:  SUBWF  4E,W
14B4:  BNC   14D0
14B6:  BTFSS  47.0
14B8:  BRA    14D0
....................        {  
....................         
....................          IF((K2-SET_POINT[6])<0 && BAN_1 == 1){//ENCENDIDO POR TEMPERATURA (1)* 
14BA:  MOVF   45,W
14BC:  SUBWF  53,W
14BE:  MOVWF  00
14C0:  BTFSS  FE8.7
14C2:  BRA    14D0
14C4:  BTFSS  47.0
14C6:  BRA    14D0
....................            
....................           OUTPUT_HIGH (VENTILADOR);//prendo ventilador 
14C8:  BCF    F94.6
14CA:  BSF    F8B.6
....................           RESET_PORT();//reseteo tiempo 
14CC:  RCALL  1488
....................           BAN_1=0; 
14CE:  BCF    47.0
....................   
....................         } 
....................       } 
.................... //////////////// fin de proteccion /////////////////////////////////////////////   
....................  
.................... ///////////////////inicio de funcion termostato ////////////////////////////////     
....................      if((K2-SET_POINT[6])<SET_POINT[4]&&BAN_2 == 0)//ojo aqui con la parte del delta de temperatura 
14D0:  MOVF   45,W
14D2:  SUBWF  53,W
14D4:  XORLW  80
14D6:  MOVWF  00
14D8:  MOVF   43,W
14DA:  XORLW  80
14DC:  SUBWF  00,W
14DE:  BC    14EE
14E0:  BTFSC  47.1
14E2:  BRA    14EE
....................        { 
....................           OUTPUT_LOW (COMPRESOR);//apago compresor 
14E4:  BCF    F94.5
14E6:  BCF    F8B.5
....................           RESET_PORT () ;//reseteo tiempo 
14E8:  RCALL  1488
....................           BAN_2 = 1; 
14EA:  BSF    47.1
....................            
....................        }else if(MINUTOS == SET_POINT[7] &&(K2+SET_POINT[6])>SET_POINT[4]&&BAN_C==0){ 
14EC:  BRA    150E
14EE:  MOVF   46,W
14F0:  SUBWF  4E,W
14F2:  BNZ   150E
14F4:  MOVF   45,W
14F6:  ADDWF  53,W
14F8:  XORLW  80
14FA:  MOVWF  00
14FC:  MOVF   43,W
14FE:  XORLW  80
1500:  SUBWF  00,W
1502:  BZ    150E
1504:  BNC   150E
1506:  BTFSC  47.3
1508:  BRA    150E
....................           
....................          BAN_C=1; 
150A:  BSF    47.3
....................          BAN_2 = 0; 
150C:  BCF    47.1
....................        } 
.................... /////////////////// fin de funcion termostato //////////////////////////////////   
....................  
.................... ////////////////////////inicio de descarche///////////////////////////////////// 
....................        
....................       IF(HORAS_2>=SET_POINT[3]){ 
150E:  BTFSC  42.7
1510:  BRA    1518
1512:  MOVF   42,W
1514:  SUBWF  50,W
1516:  BNC   152C
....................         
....................           OUTPUT_LOW(COMPRESOR) ; 
1518:  BCF    F94.5
151A:  BCF    F8B.5
....................           OUTPUT_LOW(VENTILADOR) ; 
151C:  BCF    F94.6
151E:  BCF    F8B.6
....................           OUTPUT_HIGH(RESISTENCIA) ;  
1520:  BCF    F94.7
1522:  BSF    F8B.7
....................           RESET_PORT();//reseteo tiempo 
1524:  RCALL  1488
....................           HORAS_2=0; 
1526:  CLRF   50
....................           BAN_3=1; 
1528:  BSF    47.2
....................           BAN_C=0; 
152A:  BCF    47.3
....................       } 
....................        
....................       IF(MINUTOS>=SET_POINT[2]&&BAN_3==1){ 
152C:  BTFSC  41.7
152E:  BRA    1536
1530:  MOVF   41,W
1532:  SUBWF  4E,W
1534:  BNC   154C
1536:  BTFSS  47.2
1538:  BRA    154C
....................         
....................           OUTPUT_LOW(RESISTENCIA) ; 
153A:  BCF    F94.7
153C:  BCF    F8B.7
....................           RESET_PORT (); 
153E:  RCALL  1488
....................           ERROR=1;//ERROR EXISTE PORQUE SE APAGA POR RESISTENCIA 
1540:  MOVLW  01
1542:  MOVWF  48
....................           BAN_1 = 0; 
1544:  BCF    47.0
....................           BAN_2 = 0; 
1546:  BCF    47.1
....................           BAN_3 = 0; 
1548:  BCF    47.2
....................         
....................        }else if((K1+SET_POINT[6])>=SET_POINT[5]&&BAN_3==1){ 
154A:  BRA    156C
154C:  MOVF   45,W
154E:  ADDWF  52,W
1550:  XORLW  80
1552:  MOVWF  00
1554:  MOVF   44,W
1556:  XORLW  80
1558:  SUBWF  00,W
155A:  BNC   156C
155C:  BTFSS  47.2
155E:  BRA    156C
....................            
....................           OUTPUT_LOW(RESISTENCIA) ; 
1560:  BCF    F94.7
1562:  BCF    F8B.7
....................           RESET_PORT (); 
1564:  RCALL  1488
....................           BAN_1 = 0; 
1566:  BCF    47.0
....................           BAN_2 = 0; 
1568:  BCF    47.1
....................           BAN_3 = 0; 
156A:  BCF    47.2
....................        } 
....................    } 
156C:  GOTO   16C6 (RETURN)
.................... ///////////////////////FIN DE DESCARCHE///////////////////////////////////////// 
....................  
.................... // (1)*: DEBO ESPERAR HASTA QUE LA TEMPERATURA ESTE POR DEBAJO DE CERO GRADOS Y 
.................... // TAMBIEN HALLA TRANSCURRIDO UN TIEMPO PARA CONSIDERAR QUE EL VENTILADOR NO  
.................... // DISPARARA AIRE CALIENTE AL SISTEMA 
....................  
....................  
....................  

Configuration Fuses:
   Word  1: 8000   PLL1 CPUDIV1 NOUSBDIV XT NOFCMEN IESO
   Word  2: 0E38   PUT NOBROWNOUT BORV21 VREGEN NOWDT WDT128
   Word  3: 8700   CCP2C1 PBADEN LPT1OSC MCLR
   Word  4: 0081   STVREN NOLVP NOXINST NODEBUG
   Word  5: C00F   NOPROTECT NOCPB NOCPD
   Word  6: E00F   NOWRT NOWRTC NOWRTB NOWRTD
   Word  7: 400F   NOEBTR NOEBTRB
